
cuyos.kernel:     file format elf32-i386


Disassembly of section .text:

00100000 <mb2_hdr_begin>:
  100000:	d6                   	(bad)
  100001:	50                   	push   %eax
  100002:	52                   	push   %edx
  100003:	e8 00 00 00 00       	call   100008 <mb2_hdr_begin+0x8>
  100008:	2c 00                	sub    $0x0,%al
  10000a:	00 00                	add    %al,(%eax)
  10000c:	fe                   	(bad)
  10000d:	ae                   	scas   %es:(%edi),%al
  10000e:	ad                   	lods   %ds:(%esi),%eax
  10000f:	17                   	pop    %ss

00100010 <mb2_framebuffer_req>:
  100010:	05 00 01 00 14       	add    $0x14000100,%eax
	...

00100024 <mb2_framebuffer_end>:
  100024:	00 00                	add    %al,(%eax)
  100026:	00 00                	add    %al,(%eax)
  100028:	08 00                	or     %al,(%eax)
	...

0010002c <mb2_hdr_end>:
  10002c:	66 90                	xchg   %ax,%ax
  10002e:	66 90                	xchg   %ax,%ax

00100030 <deregister_tm_clones>:
  100030:	b8 8c 20 10 00       	mov    $0x10208c,%eax
  100035:	3d 8c 20 10 00       	cmp    $0x10208c,%eax
  10003a:	74 24                	je     100060 <deregister_tm_clones+0x30>
  10003c:	b8 00 00 00 00       	mov    $0x0,%eax
  100041:	85 c0                	test   %eax,%eax
  100043:	74 1b                	je     100060 <deregister_tm_clones+0x30>
  100045:	55                   	push   %ebp
  100046:	89 e5                	mov    %esp,%ebp
  100048:	83 ec 14             	sub    $0x14,%esp
  10004b:	68 8c 20 10 00       	push   $0x10208c
  100050:	ff d0                	call   *%eax
  100052:	83 c4 10             	add    $0x10,%esp
  100055:	c9                   	leave
  100056:	c3                   	ret
  100057:	2e 8d b4 26 00 00 00 	lea    %cs:0x0(%esi,%eiz,1),%esi
  10005e:	00 
  10005f:	90                   	nop
  100060:	c3                   	ret
  100061:	2e 8d b4 26 00 00 00 	lea    %cs:0x0(%esi,%eiz,1),%esi
  100068:	00 
  100069:	8d b4 26 00 00 00 00 	lea    0x0(%esi,%eiz,1),%esi

00100070 <register_tm_clones>:
  100070:	b8 8c 20 10 00       	mov    $0x10208c,%eax
  100075:	2d 8c 20 10 00       	sub    $0x10208c,%eax
  10007a:	c1 f8 02             	sar    $0x2,%eax
  10007d:	89 c2                	mov    %eax,%edx
  10007f:	c1 ea 1f             	shr    $0x1f,%edx
  100082:	01 d0                	add    %edx,%eax
  100084:	d1 f8                	sar    $1,%eax
  100086:	74 20                	je     1000a8 <register_tm_clones+0x38>
  100088:	ba 00 00 00 00       	mov    $0x0,%edx
  10008d:	85 d2                	test   %edx,%edx
  10008f:	74 17                	je     1000a8 <register_tm_clones+0x38>
  100091:	55                   	push   %ebp
  100092:	89 e5                	mov    %esp,%ebp
  100094:	83 ec 10             	sub    $0x10,%esp
  100097:	50                   	push   %eax
  100098:	68 8c 20 10 00       	push   $0x10208c
  10009d:	ff d2                	call   *%edx
  10009f:	83 c4 10             	add    $0x10,%esp
  1000a2:	c9                   	leave
  1000a3:	c3                   	ret
  1000a4:	8d 74 26 00          	lea    0x0(%esi,%eiz,1),%esi
  1000a8:	c3                   	ret
  1000a9:	8d b4 26 00 00 00 00 	lea    0x0(%esi,%eiz,1),%esi

001000b0 <__do_global_dtors_aux>:
  1000b0:	80 3d 00 30 10 00 00 	cmpb   $0x0,0x103000
  1000b7:	75 67                	jne    100120 <__do_global_dtors_aux+0x70>
  1000b9:	55                   	push   %ebp
  1000ba:	89 e5                	mov    %esp,%ebp
  1000bc:	56                   	push   %esi
  1000bd:	be 84 20 10 00       	mov    $0x102084,%esi
  1000c2:	53                   	push   %ebx
  1000c3:	bb 88 20 10 00       	mov    $0x102088,%ebx
  1000c8:	a1 04 30 10 00       	mov    0x103004,%eax
  1000cd:	81 eb 84 20 10 00    	sub    $0x102084,%ebx
  1000d3:	c1 fb 02             	sar    $0x2,%ebx
  1000d6:	83 eb 01             	sub    $0x1,%ebx
  1000d9:	39 d8                	cmp    %ebx,%eax
  1000db:	73 17                	jae    1000f4 <__do_global_dtors_aux+0x44>
  1000dd:	8d 76 00             	lea    0x0(%esi),%esi
  1000e0:	83 c0 01             	add    $0x1,%eax
  1000e3:	a3 04 30 10 00       	mov    %eax,0x103004
  1000e8:	ff 14 86             	call   *(%esi,%eax,4)
  1000eb:	a1 04 30 10 00       	mov    0x103004,%eax
  1000f0:	39 d8                	cmp    %ebx,%eax
  1000f2:	72 ec                	jb     1000e0 <__do_global_dtors_aux+0x30>
  1000f4:	e8 37 ff ff ff       	call   100030 <deregister_tm_clones>
  1000f9:	b8 00 00 00 00       	mov    $0x0,%eax
  1000fe:	85 c0                	test   %eax,%eax
  100100:	74 10                	je     100112 <__do_global_dtors_aux+0x62>
  100102:	83 ec 0c             	sub    $0xc,%esp
  100105:	68 48 10 10 00       	push   $0x101048
  10010a:	e8 f1 fe ef ff       	call   0 <mb2_hdr_begin-0x100000>
  10010f:	83 c4 10             	add    $0x10,%esp
  100112:	c6 05 00 30 10 00 01 	movb   $0x1,0x103000
  100119:	8d 65 f8             	lea    -0x8(%ebp),%esp
  10011c:	5b                   	pop    %ebx
  10011d:	5e                   	pop    %esi
  10011e:	5d                   	pop    %ebp
  10011f:	c3                   	ret
  100120:	c3                   	ret
  100121:	2e 8d b4 26 00 00 00 	lea    %cs:0x0(%esi,%eiz,1),%esi
  100128:	00 
  100129:	8d b4 26 00 00 00 00 	lea    0x0(%esi,%eiz,1),%esi

00100130 <frame_dummy>:
  100130:	b8 00 00 00 00       	mov    $0x0,%eax
  100135:	85 c0                	test   %eax,%eax
  100137:	74 27                	je     100160 <frame_dummy+0x30>
  100139:	55                   	push   %ebp
  10013a:	89 e5                	mov    %esp,%ebp
  10013c:	83 ec 10             	sub    $0x10,%esp
  10013f:	68 08 30 10 00       	push   $0x103008
  100144:	68 48 10 10 00       	push   $0x101048
  100149:	e8 b2 fe ef ff       	call   0 <mb2_hdr_begin-0x100000>
  10014e:	83 c4 10             	add    $0x10,%esp
  100151:	c9                   	leave
  100152:	e9 19 ff ff ff       	jmp    100070 <register_tm_clones>
  100157:	2e 8d b4 26 00 00 00 	lea    %cs:0x0(%esi,%eiz,1),%esi
  10015e:	00 
  10015f:	90                   	nop
  100160:	e9 0b ff ff ff       	jmp    100070 <register_tm_clones>

00100165 <_start>:
  100165:	e8 1f 0e 00 00       	call   100f89 <_init>
  10016a:	e8 11 09 00 00       	call   100a80 <kernelMain>
  10016f:	fa                   	cli
  100170:	f4                   	hlt
  100171:	eb fd                	jmp    100170 <_start+0xb>
  100173:	66 90                	xchg   %ax,%ax
  100175:	66 90                	xchg   %ax,%ax
  100177:	66 90                	xchg   %ax,%ax
  100179:	66 90                	xchg   %ax,%ax
  10017b:	66 90                	xchg   %ax,%ax
  10017d:	66 90                	xchg   %ax,%ax
  10017f:	90                   	nop

00100180 <terminal_initialize>:
  100180:	c7 05 2c 30 10 00 00 	movl   $0x0,0x10302c
  100187:	00 00 00 
  10018a:	ba a0 80 0b 00       	mov    $0xb80a0,%edx
  10018f:	c7 05 28 30 10 00 00 	movl   $0x0,0x103028
  100196:	00 00 00 
  100199:	c6 05 24 30 10 00 07 	movb   $0x7,0x103024
  1001a0:	c7 05 20 30 10 00 00 	movl   $0xb8000,0x103020
  1001a7:	80 0b 00 
  1001aa:	8d b6 00 00 00 00    	lea    0x0(%esi),%esi
  1001b0:	8d 82 60 ff ff ff    	lea    -0xa0(%edx),%eax
  1001b6:	2e 8d b4 26 00 00 00 	lea    %cs:0x0(%esi,%eiz,1),%esi
  1001bd:	00 
  1001be:	66 90                	xchg   %ax,%ax
  1001c0:	b9 20 07 00 00       	mov    $0x720,%ecx
  1001c5:	83 c0 04             	add    $0x4,%eax
  1001c8:	66 89 48 fc          	mov    %cx,-0x4(%eax)
  1001cc:	b9 20 07 00 00       	mov    $0x720,%ecx
  1001d1:	66 89 48 fe          	mov    %cx,-0x2(%eax)
  1001d5:	39 d0                	cmp    %edx,%eax
  1001d7:	75 e7                	jne    1001c0 <terminal_initialize+0x40>
  1001d9:	8d 90 a0 00 00 00    	lea    0xa0(%eax),%edx
  1001df:	3d a0 8f 0b 00       	cmp    $0xb8fa0,%eax
  1001e4:	75 ca                	jne    1001b0 <terminal_initialize+0x30>
  1001e6:	c3                   	ret
  1001e7:	2e 8d b4 26 00 00 00 	lea    %cs:0x0(%esi,%eiz,1),%esi
  1001ee:	00 
  1001ef:	90                   	nop

001001f0 <terminal_setcolor>:
  1001f0:	55                   	push   %ebp
  1001f1:	89 e5                	mov    %esp,%ebp
  1001f3:	8b 45 08             	mov    0x8(%ebp),%eax
  1001f6:	5d                   	pop    %ebp
  1001f7:	a2 24 30 10 00       	mov    %al,0x103024
  1001fc:	c3                   	ret
  1001fd:	8d 76 00             	lea    0x0(%esi),%esi

00100200 <terminal_putentryat>:
  100200:	55                   	push   %ebp
  100201:	89 e5                	mov    %esp,%ebp
  100203:	0f b6 55 0c          	movzbl 0xc(%ebp),%edx
  100207:	0f b6 4d 08          	movzbl 0x8(%ebp),%ecx
  10020b:	8b 45 14             	mov    0x14(%ebp),%eax
  10020e:	c1 e2 08             	shl    $0x8,%edx
  100211:	09 ca                	or     %ecx,%edx
  100213:	8d 04 80             	lea    (%eax,%eax,4),%eax
  100216:	8b 0d 20 30 10 00    	mov    0x103020,%ecx
  10021c:	c1 e0 04             	shl    $0x4,%eax
  10021f:	03 45 10             	add    0x10(%ebp),%eax
  100222:	66 89 14 41          	mov    %dx,(%ecx,%eax,2)
  100226:	5d                   	pop    %ebp
  100227:	c3                   	ret
  100228:	2e 8d b4 26 00 00 00 	lea    %cs:0x0(%esi,%eiz,1),%esi
  10022f:	00 

00100230 <terminal_putchar>:
  100230:	55                   	push   %ebp
  100231:	a1 2c 30 10 00       	mov    0x10302c,%eax
  100236:	89 e5                	mov    %esp,%ebp
  100238:	57                   	push   %edi
  100239:	8b 4d 08             	mov    0x8(%ebp),%ecx
  10023c:	56                   	push   %esi
  10023d:	53                   	push   %ebx
  10023e:	83 f8 18             	cmp    $0x18,%eax
  100241:	0f 87 83 00 00 00    	ja     1002ca <terminal_putchar+0x9a>
  100247:	8b 1d 28 30 10 00    	mov    0x103028,%ebx
  10024d:	8d 14 80             	lea    (%eax,%eax,4),%edx
  100250:	8b 35 20 30 10 00    	mov    0x103020,%esi
  100256:	c1 e2 04             	shl    $0x4,%edx
  100259:	01 da                	add    %ebx,%edx
  10025b:	8d 34 56             	lea    (%esi,%edx,2),%esi
  10025e:	0f b6 15 24 30 10 00 	movzbl 0x103024,%edx
  100265:	c1 e2 08             	shl    $0x8,%edx
  100268:	0f b6 f9             	movzbl %cl,%edi
  10026b:	09 fa                	or     %edi,%edx
  10026d:	66 89 16             	mov    %dx,(%esi)
  100270:	80 f9 0a             	cmp    $0xa,%cl
  100273:	74 35                	je     1002aa <terminal_putchar+0x7a>
  100275:	8d 53 01             	lea    0x1(%ebx),%edx
  100278:	83 fb 4f             	cmp    $0x4f,%ebx
  10027b:	75 22                	jne    10029f <terminal_putchar+0x6f>
  10027d:	8d 50 02             	lea    0x2(%eax),%edx
  100280:	83 f8 17             	cmp    $0x17,%eax
  100283:	5b                   	pop    %ebx
  100284:	5e                   	pop    %esi
  100285:	b8 00 00 00 00       	mov    $0x0,%eax
  10028a:	5f                   	pop    %edi
  10028b:	5d                   	pop    %ebp
  10028c:	c7 05 28 30 10 00 00 	movl   $0x0,0x103028
  100293:	00 00 00 
  100296:	0f 45 c2             	cmovne %edx,%eax
  100299:	a3 2c 30 10 00       	mov    %eax,0x10302c
  10029e:	c3                   	ret
  10029f:	5b                   	pop    %ebx
  1002a0:	5e                   	pop    %esi
  1002a1:	89 15 28 30 10 00    	mov    %edx,0x103028
  1002a7:	5f                   	pop    %edi
  1002a8:	5d                   	pop    %ebp
  1002a9:	c3                   	ret
  1002aa:	c7 05 28 30 10 00 01 	movl   $0x1,0x103028
  1002b1:	00 00 00 
  1002b4:	8d 50 01             	lea    0x1(%eax),%edx
  1002b7:	5b                   	pop    %ebx
  1002b8:	83 c0 02             	add    $0x2,%eax
  1002bb:	5e                   	pop    %esi
  1002bc:	5f                   	pop    %edi
  1002bd:	89 15 2c 30 10 00    	mov    %edx,0x10302c
  1002c3:	a2 24 30 10 00       	mov    %al,0x103024
  1002c8:	5d                   	pop    %ebp
  1002c9:	c3                   	ret
  1002ca:	c7 05 2c 30 10 00 00 	movl   $0x0,0x10302c
  1002d1:	00 00 00 
  1002d4:	ba a0 80 0b 00       	mov    $0xb80a0,%edx
  1002d9:	c6 05 24 30 10 00 07 	movb   $0x7,0x103024
  1002e0:	c7 05 20 30 10 00 00 	movl   $0xb8000,0x103020
  1002e7:	80 0b 00 
  1002ea:	8d b6 00 00 00 00    	lea    0x0(%esi),%esi
  1002f0:	8d 82 60 ff ff ff    	lea    -0xa0(%edx),%eax
  1002f6:	bb 20 07 00 00       	mov    $0x720,%ebx
  1002fb:	be 20 07 00 00       	mov    $0x720,%esi
  100300:	83 c0 04             	add    $0x4,%eax
  100303:	66 89 58 fc          	mov    %bx,-0x4(%eax)
  100307:	66 89 70 fe          	mov    %si,-0x2(%eax)
  10030b:	39 c2                	cmp    %eax,%edx
  10030d:	75 e7                	jne    1002f6 <terminal_putchar+0xc6>
  10030f:	81 c2 a0 00 00 00    	add    $0xa0,%edx
  100315:	81 fa 40 90 0b 00    	cmp    $0xb9040,%edx
  10031b:	75 d3                	jne    1002f0 <terminal_putchar+0xc0>
  10031d:	ba 00 07 00 00       	mov    $0x700,%edx
  100322:	be 00 80 0b 00       	mov    $0xb8000,%esi
  100327:	31 db                	xor    %ebx,%ebx
  100329:	31 c0                	xor    %eax,%eax
  10032b:	e9 38 ff ff ff       	jmp    100268 <terminal_putchar+0x38>

00100330 <terminal_write>:
  100330:	55                   	push   %ebp
  100331:	89 e5                	mov    %esp,%ebp
  100333:	56                   	push   %esi
  100334:	53                   	push   %ebx
  100335:	8b 75 0c             	mov    0xc(%ebp),%esi
  100338:	85 f6                	test   %esi,%esi
  10033a:	74 22                	je     10035e <terminal_write+0x2e>
  10033c:	8b 5d 08             	mov    0x8(%ebp),%ebx
  10033f:	01 de                	add    %ebx,%esi
  100341:	8d b4 26 00 00 00 00 	lea    0x0(%esi,%eiz,1),%esi
  100348:	0f be 03             	movsbl (%ebx),%eax
  10034b:	83 ec 0c             	sub    $0xc,%esp
  10034e:	83 c3 01             	add    $0x1,%ebx
  100351:	50                   	push   %eax
  100352:	e8 d9 fe ff ff       	call   100230 <terminal_putchar>
  100357:	83 c4 10             	add    $0x10,%esp
  10035a:	39 f3                	cmp    %esi,%ebx
  10035c:	75 ea                	jne    100348 <terminal_write+0x18>
  10035e:	8d 65 f8             	lea    -0x8(%ebp),%esp
  100361:	5b                   	pop    %ebx
  100362:	5e                   	pop    %esi
  100363:	5d                   	pop    %ebp
  100364:	c3                   	ret
  100365:	2e 8d b4 26 00 00 00 	lea    %cs:0x0(%esi,%eiz,1),%esi
  10036c:	00 
  10036d:	8d 76 00             	lea    0x0(%esi),%esi

00100370 <terminal_writestring>:
  100370:	55                   	push   %ebp
  100371:	89 e5                	mov    %esp,%ebp
  100373:	56                   	push   %esi
  100374:	53                   	push   %ebx
  100375:	8b 5d 08             	mov    0x8(%ebp),%ebx
  100378:	83 ec 0c             	sub    $0xc,%esp
  10037b:	53                   	push   %ebx
  10037c:	e8 af 0b 00 00       	call   100f30 <strlen>
  100381:	83 c4 10             	add    $0x10,%esp
  100384:	85 c0                	test   %eax,%eax
  100386:	74 1e                	je     1003a6 <terminal_writestring+0x36>
  100388:	8d 34 03             	lea    (%ebx,%eax,1),%esi
  10038b:	2e 8d 74 26 00       	lea    %cs:0x0(%esi,%eiz,1),%esi
  100390:	0f be 03             	movsbl (%ebx),%eax
  100393:	83 ec 0c             	sub    $0xc,%esp
  100396:	83 c3 01             	add    $0x1,%ebx
  100399:	50                   	push   %eax
  10039a:	e8 91 fe ff ff       	call   100230 <terminal_putchar>
  10039f:	83 c4 10             	add    $0x10,%esp
  1003a2:	39 f3                	cmp    %esi,%ebx
  1003a4:	75 ea                	jne    100390 <terminal_writestring+0x20>
  1003a6:	8d 65 f8             	lea    -0x8(%ebp),%esp
  1003a9:	5b                   	pop    %ebx
  1003aa:	5e                   	pop    %esi
  1003ab:	5d                   	pop    %ebp
  1003ac:	c3                   	ret

001003ad <reloadGdt>:
  1003ad:	b8 10 00 00 00       	mov    $0x10,%eax
  1003b2:	8e d0                	mov    %eax,%ss
  1003b4:	8e d8                	mov    %eax,%ds
  1003b6:	8e c0                	mov    %eax,%es
  1003b8:	8e e0                	mov    %eax,%fs
  1003ba:	8e e8                	mov    %eax,%gs
  1003bc:	5b                   	pop    %ebx
  1003bd:	6a 08                	push   $0x8
  1003bf:	53                   	push   %ebx
  1003c0:	cb                   	lret
  1003c1:	66 90                	xchg   %ax,%ax
  1003c3:	66 90                	xchg   %ax,%ax
  1003c5:	66 90                	xchg   %ax,%ax
  1003c7:	66 90                	xchg   %ax,%ax
  1003c9:	66 90                	xchg   %ax,%ax
  1003cb:	66 90                	xchg   %ax,%ax
  1003cd:	66 90                	xchg   %ax,%ax
  1003cf:	90                   	nop

001003d0 <encodeGdtEntry>:
  1003d0:	55                   	push   %ebp
  1003d1:	89 e5                	mov    %esp,%ebp
  1003d3:	8b 55 08             	mov    0x8(%ebp),%edx
  1003d6:	8b 45 10             	mov    0x10(%ebp),%eax
  1003d9:	0f b7 4d 0e          	movzwl 0xe(%ebp),%ecx
  1003dd:	88 42 05             	mov    %al,0x5(%edx)
  1003e0:	c1 e8 10             	shr    $0x10,%eax
  1003e3:	c1 e0 04             	shl    $0x4,%eax
  1003e6:	66 c7 02 ff ff       	movw   $0xffff,(%edx)
  1003eb:	83 c8 0f             	or     $0xf,%eax
  1003ee:	66 89 4a 02          	mov    %cx,0x2(%edx)
  1003f2:	c6 42 04 00          	movb   $0x0,0x4(%edx)
  1003f6:	c6 42 07 00          	movb   $0x0,0x7(%edx)
  1003fa:	88 42 06             	mov    %al,0x6(%edx)
  1003fd:	5d                   	pop    %ebp
  1003fe:	c3                   	ret
  1003ff:	90                   	nop

00100400 <load_gdt>:
  100400:	0f 01 15 48 30 10 00 	lgdtl  0x103048
  100407:	c3                   	ret
  100408:	2e 8d b4 26 00 00 00 	lea    %cs:0x0(%esi,%eiz,1),%esi
  10040f:	00 

00100410 <setupGDT>:
  100410:	55                   	push   %ebp
  100411:	b8 30 30 10 00       	mov    $0x103030,%eax
  100416:	ba 17 00 00 00       	mov    $0x17,%edx
  10041b:	89 e5                	mov    %esp,%ebp
  10041d:	83 ec 10             	sub    $0x10,%esp
  100420:	66 89 15 48 30 10 00 	mov    %dx,0x103048
  100427:	50                   	push   %eax
  100428:	68 4c 10 10 00       	push   $0x10104c
  10042d:	c7 05 30 30 10 00 ff 	movl   $0xffff,0x103030
  100434:	ff 00 00 
  100437:	c7 05 34 30 10 00 00 	movl   $0xf0000,0x103034
  10043e:	00 0f 00 
  100441:	c7 05 38 30 10 00 ff 	movl   $0xffff,0x103038
  100448:	ff 00 00 
  10044b:	c7 05 3c 30 10 00 00 	movl   $0xff9a00,0x10303c
  100452:	9a ff 00 
  100455:	c7 05 40 30 10 00 ff 	movl   $0xffff,0x103040
  10045c:	ff 00 00 
  10045f:	c7 05 44 30 10 00 00 	movl   $0xff9200,0x103044
  100466:	92 ff 00 
  100469:	a3 4a 30 10 00       	mov    %eax,0x10304a
  10046e:	c7 05 4e 30 10 00 00 	movl   $0x0,0x10304e
  100475:	00 00 00 
  100478:	e8 83 06 00 00       	call   100b00 <printf>
  10047d:	59                   	pop    %ecx
  10047e:	58                   	pop    %eax
  10047f:	0f b7 05 48 30 10 00 	movzwl 0x103048,%eax
  100486:	50                   	push   %eax
  100487:	68 5a 10 10 00       	push   $0x10105a
  10048c:	e8 6f 06 00 00       	call   100b00 <printf>
  100491:	0f 01 15 48 30 10 00 	lgdtl  0x103048
  100498:	83 c4 10             	add    $0x10,%esp
  10049b:	c9                   	leave
  10049c:	e9 0c ff ff ff       	jmp    1003ad <reloadGdt>
  1004a1:	66 90                	xchg   %ax,%ax
  1004a3:	66 90                	xchg   %ax,%ax
  1004a5:	66 90                	xchg   %ax,%ax
  1004a7:	66 90                	xchg   %ax,%ax
  1004a9:	66 90                	xchg   %ax,%ax
  1004ab:	66 90                	xchg   %ax,%ax
  1004ad:	66 90                	xchg   %ax,%ax
  1004af:	90                   	nop

001004b0 <setIDTEntry>:
  1004b0:	55                   	push   %ebp
  1004b1:	89 e5                	mov    %esp,%ebp
  1004b3:	57                   	push   %edi
  1004b4:	56                   	push   %esi
  1004b5:	53                   	push   %ebx
  1004b6:	83 ec 1c             	sub    $0x1c,%esp
  1004b9:	8b 5d 08             	mov    0x8(%ebp),%ebx
  1004bc:	8b 75 0c             	mov    0xc(%ebp),%esi
  1004bf:	8b 55 10             	mov    0x10(%ebp),%edx
  1004c2:	8b 7d 14             	mov    0x14(%ebp),%edi
  1004c5:	83 fb 01             	cmp    $0x1,%ebx
  1004c8:	74 3e                	je     100508 <setIDTEntry+0x58>
  1004ca:	83 fb 21             	cmp    $0x21,%ebx
  1004cd:	74 59                	je     100528 <setIDTEntry+0x78>
  1004cf:	66 89 34 dd 60 30 10 	mov    %si,0x103060(,%ebx,8)
  1004d6:	00 
  1004d7:	89 f8                	mov    %edi,%eax
  1004d9:	c1 ee 10             	shr    $0x10,%esi
  1004dc:	66 89 14 dd 62 30 10 	mov    %dx,0x103062(,%ebx,8)
  1004e3:	00 
  1004e4:	c6 04 dd 64 30 10 00 	movb   $0x0,0x103064(,%ebx,8)
  1004eb:	00 
  1004ec:	88 04 dd 65 30 10 00 	mov    %al,0x103065(,%ebx,8)
  1004f3:	66 89 34 dd 66 30 10 	mov    %si,0x103066(,%ebx,8)
  1004fa:	00 
  1004fb:	8d 65 f4             	lea    -0xc(%ebp),%esp
  1004fe:	5b                   	pop    %ebx
  1004ff:	5e                   	pop    %esi
  100500:	5f                   	pop    %edi
  100501:	5d                   	pop    %ebp
  100502:	c3                   	ret
  100503:	2e 8d 74 26 00       	lea    %cs:0x0(%esi,%eiz,1),%esi
  100508:	83 ec 08             	sub    $0x8,%esp
  10050b:	89 55 e4             	mov    %edx,-0x1c(%ebp)
  10050e:	56                   	push   %esi
  10050f:	68 69 10 10 00       	push   $0x101069
  100514:	e8 e7 05 00 00       	call   100b00 <printf>
  100519:	8b 55 e4             	mov    -0x1c(%ebp),%edx
  10051c:	83 c4 10             	add    $0x10,%esp
  10051f:	eb ae                	jmp    1004cf <setIDTEntry+0x1f>
  100521:	8d b4 26 00 00 00 00 	lea    0x0(%esi,%eiz,1),%esi
  100528:	83 ec 08             	sub    $0x8,%esp
  10052b:	89 55 e4             	mov    %edx,-0x1c(%ebp)
  10052e:	56                   	push   %esi
  10052f:	68 7b 10 10 00       	push   $0x10107b
  100534:	e8 c7 05 00 00       	call   100b00 <printf>
  100539:	8b 55 e4             	mov    -0x1c(%ebp),%edx
  10053c:	83 c4 10             	add    $0x10,%esp
  10053f:	eb 8e                	jmp    1004cf <setIDTEntry+0x1f>
  100541:	2e 8d b4 26 00 00 00 	lea    %cs:0x0(%esi,%eiz,1),%esi
  100548:	00 
  100549:	8d b4 26 00 00 00 00 	lea    0x0(%esi,%eiz,1),%esi

00100550 <load_idt>:
  100550:	0f 01 1d 60 38 10 00 	lidtl  0x103860
  100557:	c3                   	ret
  100558:	2e 8d b4 26 00 00 00 	lea    %cs:0x0(%esi,%eiz,1),%esi
  10055f:	00 

00100560 <setupIDT>:
  100560:	55                   	push   %ebp
  100561:	31 c0                	xor    %eax,%eax
  100563:	89 e5                	mov    %esp,%ebp
  100565:	57                   	push   %edi
  100566:	bf 90 08 10 00       	mov    $0x100890,%edi
  10056b:	56                   	push   %esi
  10056c:	53                   	push   %ebx
  10056d:	bb 97 08 10 00       	mov    $0x100897,%ebx
  100572:	89 de                	mov    %ebx,%esi
  100574:	c1 ee 10             	shr    $0x10,%esi
  100577:	83 ec 0c             	sub    $0xc,%esp
  10057a:	8d b6 00 00 00 00    	lea    0x0(%esi),%esi
  100580:	83 f8 20             	cmp    $0x20,%eax
  100583:	0f 85 c7 00 00 00    	jne    100650 <setupIDT+0xf0>
  100589:	89 f8                	mov    %edi,%eax
  10058b:	66 89 3d 60 31 10 00 	mov    %di,0x103160
  100592:	c7 05 62 31 10 00 08 	movl   $0x8e000008,0x103162
  100599:	00 00 8e 
  10059c:	c1 e8 10             	shr    $0x10,%eax
  10059f:	66 a3 66 31 10 00    	mov    %ax,0x103166
  1005a5:	83 ec 08             	sub    $0x8,%esp
  1005a8:	68 97 08 10 00       	push   $0x100897
  1005ad:	68 7b 10 10 00       	push   $0x10107b
  1005b2:	e8 49 05 00 00       	call   100b00 <printf>
  1005b7:	66 89 1d 68 31 10 00 	mov    %bx,0x103168
  1005be:	c7 05 6a 31 10 00 08 	movl   $0x8e000008,0x10316a
  1005c5:	00 00 8e 
  1005c8:	66 89 35 6e 31 10 00 	mov    %si,0x10316e
  1005cf:	59                   	pop    %ecx
  1005d0:	58                   	pop    %eax
  1005d1:	68 97 08 10 00       	push   $0x100897
  1005d6:	68 8e 10 10 00       	push   $0x10108e
  1005db:	e8 20 05 00 00       	call   100b00 <printf>
  1005e0:	83 c4 10             	add    $0x10,%esp
  1005e3:	b8 22 00 00 00       	mov    $0x22,%eax
  1005e8:	ba 08 00 00 00       	mov    $0x8,%edx
  1005ed:	89 f9                	mov    %edi,%ecx
  1005ef:	66 89 3c c5 60 30 10 	mov    %di,0x103060(,%eax,8)
  1005f6:	00 
  1005f7:	66 89 14 c5 62 30 10 	mov    %dx,0x103062(,%eax,8)
  1005fe:	00 
  1005ff:	0f b7 15 9a 11 10 00 	movzwl 0x10119a,%edx
  100606:	c1 e9 10             	shr    $0x10,%ecx
  100609:	66 89 0c c5 66 30 10 	mov    %cx,0x103066(,%eax,8)
  100610:	00 
  100611:	66 89 14 c5 64 30 10 	mov    %dx,0x103064(,%eax,8)
  100618:	00 
  100619:	83 c0 01             	add    $0x1,%eax
  10061c:	3d 00 01 00 00       	cmp    $0x100,%eax
  100621:	0f 85 59 ff ff ff    	jne    100580 <setupIDT+0x20>
  100627:	c7 05 62 38 10 00 60 	movl   $0x103060,0x103862
  10062e:	30 10 00 
  100631:	b8 ff 07 00 00       	mov    $0x7ff,%eax
  100636:	66 a3 60 38 10 00    	mov    %ax,0x103860
  10063c:	0f 01 1d 60 38 10 00 	lidtl  0x103860
  100643:	fb                   	sti
  100644:	8d 65 f4             	lea    -0xc(%ebp),%esp
  100647:	5b                   	pop    %ebx
  100648:	5e                   	pop    %esi
  100649:	5f                   	pop    %edi
  10064a:	5d                   	pop    %ebp
  10064b:	c3                   	ret
  10064c:	8d 74 26 00          	lea    0x0(%esi,%eiz,1),%esi
  100650:	83 f8 21             	cmp    $0x21,%eax
  100653:	0f 84 4c ff ff ff    	je     1005a5 <setupIDT+0x45>
  100659:	83 f8 01             	cmp    $0x1,%eax
  10065c:	75 8a                	jne    1005e8 <setupIDT+0x88>
  10065e:	83 ec 08             	sub    $0x8,%esp
  100661:	68 90 08 10 00       	push   $0x100890
  100666:	68 69 10 10 00       	push   $0x101069
  10066b:	e8 90 04 00 00       	call   100b00 <printf>
  100670:	89 f8                	mov    %edi,%eax
  100672:	66 89 3d 68 30 10 00 	mov    %di,0x103068
  100679:	83 c4 10             	add    $0x10,%esp
  10067c:	c7 05 6a 30 10 00 08 	movl   $0x8e000008,0x10306a
  100683:	00 00 8e 
  100686:	c1 e8 10             	shr    $0x10,%eax
  100689:	66 a3 6e 30 10 00    	mov    %ax,0x10306e
  10068f:	b8 02 00 00 00       	mov    $0x2,%eax
  100694:	e9 4f ff ff ff       	jmp    1005e8 <setupIDT+0x88>
  100699:	66 90                	xchg   %ax,%ax
  10069b:	66 90                	xchg   %ax,%ax
  10069d:	66 90                	xchg   %ax,%ax
  10069f:	90                   	nop

001006a0 <timerHandler>:
  1006a0:	a1 68 38 10 00       	mov    0x103868,%eax
  1006a5:	83 c0 01             	add    $0x1,%eax
  1006a8:	a3 68 38 10 00       	mov    %eax,0x103868
  1006ad:	a1 68 38 10 00       	mov    0x103868,%eax
  1006b2:	69 c0 29 5c 8f c2    	imul   $0xc28f5c29,%eax,%eax
  1006b8:	c1 c8 02             	ror    $0x2,%eax
  1006bb:	3d 28 5c 8f 02       	cmp    $0x28f5c28,%eax
  1006c0:	76 06                	jbe    1006c8 <timerHandler+0x28>
  1006c2:	c3                   	ret
  1006c3:	2e 8d 74 26 00       	lea    %cs:0x0(%esi,%eiz,1),%esi
  1006c8:	55                   	push   %ebp
  1006c9:	89 e5                	mov    %esp,%ebp
  1006cb:	83 ec 10             	sub    $0x10,%esp
  1006ce:	a1 68 38 10 00       	mov    0x103868,%eax
  1006d3:	50                   	push   %eax
  1006d4:	68 a8 10 10 00       	push   $0x1010a8
  1006d9:	e8 22 04 00 00       	call   100b00 <printf>
  1006de:	83 c4 10             	add    $0x10,%esp
  1006e1:	c9                   	leave
  1006e2:	c3                   	ret
  1006e3:	66 90                	xchg   %ax,%ax
  1006e5:	66 90                	xchg   %ax,%ax
  1006e7:	66 90                	xchg   %ax,%ax
  1006e9:	66 90                	xchg   %ax,%ax
  1006eb:	66 90                	xchg   %ax,%ax
  1006ed:	66 90                	xchg   %ax,%ax
  1006ef:	90                   	nop

001006f0 <applyModifier>:
  1006f0:	55                   	push   %ebp
  1006f1:	89 e5                	mov    %esp,%ebp
  1006f3:	83 ec 08             	sub    $0x8,%esp
  1006f6:	8b 45 08             	mov    0x8(%ebp),%eax
  1006f9:	83 f8 1d             	cmp    $0x1d,%eax
  1006fc:	74 32                	je     100730 <applyModifier+0x40>
  1006fe:	83 f8 38             	cmp    $0x38,%eax
  100701:	74 0d                	je     100710 <applyModifier+0x20>
  100703:	31 c0                	xor    %eax,%eax
  100705:	c9                   	leave
  100706:	c3                   	ret
  100707:	2e 8d b4 26 00 00 00 	lea    %cs:0x0(%esi,%eiz,1),%esi
  10070e:	00 
  10070f:	90                   	nop
  100710:	83 ec 0c             	sub    $0xc,%esp
  100713:	80 0d 9e 3a 10 00 04 	orb    $0x4,0x103a9e
  10071a:	68 d1 10 10 00       	push   $0x1010d1
  10071f:	e8 dc 03 00 00       	call   100b00 <printf>
  100724:	83 c4 10             	add    $0x10,%esp
  100727:	31 c0                	xor    %eax,%eax
  100729:	eb da                	jmp    100705 <applyModifier+0x15>
  10072b:	2e 8d 74 26 00       	lea    %cs:0x0(%esi,%eiz,1),%esi
  100730:	83 ec 0c             	sub    $0xc,%esp
  100733:	80 0d 9e 3a 10 00 02 	orb    $0x2,0x103a9e
  10073a:	68 b9 10 10 00       	push   $0x1010b9
  10073f:	e8 bc 03 00 00       	call   100b00 <printf>
  100744:	83 c4 10             	add    $0x10,%esp
  100747:	b8 01 00 00 00       	mov    $0x1,%eax
  10074c:	c9                   	leave
  10074d:	c3                   	ret
  10074e:	66 90                	xchg   %ax,%ax

00100750 <removeModifier>:
  100750:	55                   	push   %ebp
  100751:	89 e5                	mov    %esp,%ebp
  100753:	83 ec 08             	sub    $0x8,%esp
  100756:	8b 45 08             	mov    0x8(%ebp),%eax
  100759:	3d 9d 00 00 00       	cmp    $0x9d,%eax
  10075e:	74 30                	je     100790 <removeModifier+0x40>
  100760:	8d 50 80             	lea    -0x80(%eax),%edx
  100763:	83 fa 38             	cmp    $0x38,%edx
  100766:	74 08                	je     100770 <removeModifier+0x20>
  100768:	31 c0                	xor    %eax,%eax
  10076a:	c9                   	leave
  10076b:	c3                   	ret
  10076c:	8d 74 26 00          	lea    0x0(%esi,%eiz,1),%esi
  100770:	83 ec 0c             	sub    $0xc,%esp
  100773:	80 25 9e 3a 10 00 fb 	andb   $0xfb,0x103a9e
  10077a:	68 00 11 10 00       	push   $0x101100
  10077f:	e8 7c 03 00 00       	call   100b00 <printf>
  100784:	83 c4 10             	add    $0x10,%esp
  100787:	31 c0                	xor    %eax,%eax
  100789:	eb df                	jmp    10076a <removeModifier+0x1a>
  10078b:	2e 8d 74 26 00       	lea    %cs:0x0(%esi,%eiz,1),%esi
  100790:	83 ec 0c             	sub    $0xc,%esp
  100793:	80 25 9e 3a 10 00 fd 	andb   $0xfd,0x103a9e
  10079a:	68 e8 10 10 00       	push   $0x1010e8
  10079f:	e8 5c 03 00 00       	call   100b00 <printf>
  1007a4:	83 c4 10             	add    $0x10,%esp
  1007a7:	b8 01 00 00 00       	mov    $0x1,%eax
  1007ac:	c9                   	leave
  1007ad:	c3                   	ret
  1007ae:	66 90                	xchg   %ax,%ax

001007b0 <keyboardDriver>:
  1007b0:	55                   	push   %ebp
  1007b1:	89 e5                	mov    %esp,%ebp
  1007b3:	56                   	push   %esi
  1007b4:	53                   	push   %ebx
  1007b5:	83 ec 0c             	sub    $0xc,%esp
  1007b8:	6a 60                	push   $0x60
  1007ba:	e8 61 01 00 00       	call   100920 <inb>
  1007bf:	83 c4 10             	add    $0x10,%esp
  1007c2:	0f b6 f0             	movzbl %al,%esi
  1007c5:	89 f3                	mov    %esi,%ebx
  1007c7:	84 db                	test   %bl,%bl
  1007c9:	0f 88 89 00 00 00    	js     100858 <keyboardDriver+0xa8>
  1007cf:	0f b6 15 9e 3a 10 00 	movzbl 0x103a9e,%edx
  1007d6:	80 fb 1d             	cmp    $0x1d,%bl
  1007d9:	0f 84 91 00 00 00    	je     100870 <keyboardDriver+0xc0>
  1007df:	80 fb 38             	cmp    $0x38,%bl
  1007e2:	75 20                	jne    100804 <keyboardDriver+0x54>
  1007e4:	83 ca 04             	or     $0x4,%edx
  1007e7:	83 ec 0c             	sub    $0xc,%esp
  1007ea:	88 15 9e 3a 10 00    	mov    %dl,0x103a9e
  1007f0:	68 d1 10 10 00       	push   $0x1010d1
  1007f5:	e8 06 03 00 00       	call   100b00 <printf>
  1007fa:	0f b6 15 9e 3a 10 00 	movzbl 0x103a9e,%edx
  100801:	83 c4 10             	add    $0x10,%esp
  100804:	0f b6 0d 80 38 10 00 	movzbl 0x103880,%ecx
  10080b:	b8 81 80 80 80       	mov    $0x80808081,%eax
  100810:	83 ec 08             	sub    $0x8,%esp
  100813:	88 9c 09 a0 38 10 00 	mov    %bl,0x1038a0(%ecx,%ecx,1)
  10081a:	88 94 09 a1 38 10 00 	mov    %dl,0x1038a1(%ecx,%ecx,1)
  100821:	83 c1 01             	add    $0x1,%ecx
  100824:	f7 e1                	mul    %ecx
  100826:	c1 ea 07             	shr    $0x7,%edx
  100829:	89 d0                	mov    %edx,%eax
  10082b:	c1 e0 08             	shl    $0x8,%eax
  10082e:	29 d0                	sub    %edx,%eax
  100830:	29 c1                	sub    %eax,%ecx
  100832:	0f be 86 20 20 10 00 	movsbl 0x102020(%esi),%eax
  100839:	88 0d 80 38 10 00    	mov    %cl,0x103880
  10083f:	50                   	push   %eax
  100840:	68 17 11 10 00       	push   $0x101117
  100845:	e8 b6 02 00 00       	call   100b00 <printf>
  10084a:	83 c4 10             	add    $0x10,%esp
  10084d:	8d 65 f8             	lea    -0x8(%ebp),%esp
  100850:	5b                   	pop    %ebx
  100851:	5e                   	pop    %esi
  100852:	5d                   	pop    %ebp
  100853:	c3                   	ret
  100854:	8d 74 26 00          	lea    0x0(%esi,%eiz,1),%esi
  100858:	83 ec 0c             	sub    $0xc,%esp
  10085b:	56                   	push   %esi
  10085c:	e8 ef fe ff ff       	call   100750 <removeModifier>
  100861:	83 c4 10             	add    $0x10,%esp
  100864:	8d 65 f8             	lea    -0x8(%ebp),%esp
  100867:	5b                   	pop    %ebx
  100868:	5e                   	pop    %esi
  100869:	5d                   	pop    %ebp
  10086a:	c3                   	ret
  10086b:	2e 8d 74 26 00       	lea    %cs:0x0(%esi,%eiz,1),%esi
  100870:	83 ec 0c             	sub    $0xc,%esp
  100873:	83 ca 02             	or     $0x2,%edx
  100876:	88 15 9e 3a 10 00    	mov    %dl,0x103a9e
  10087c:	68 b9 10 10 00       	push   $0x1010b9
  100881:	e8 7a 02 00 00       	call   100b00 <printf>
  100886:	83 c4 10             	add    $0x10,%esp
  100889:	8d 65 f8             	lea    -0x8(%ebp),%esp
  10088c:	5b                   	pop    %ebx
  10088d:	5e                   	pop    %esi
  10088e:	5d                   	pop    %ebp
  10088f:	c3                   	ret

00100890 <defaultInterruptHandler>:
  100890:	b0 20                	mov    $0x20,%al
  100892:	e6 20                	out    %al,$0x20
  100894:	e6 a0                	out    %al,$0xa0
  100896:	cf                   	iret

00100897 <keyboardInterruptHandler>:
  100897:	60                   	pusha
  100898:	1e                   	push   %ds
  100899:	06                   	push   %es
  10089a:	0f a0                	push   %fs
  10089c:	0f a8                	push   %gs
  10089e:	66 b8 10 00          	mov    $0x10,%ax
  1008a2:	8e d8                	mov    %eax,%ds
  1008a4:	8e c0                	mov    %eax,%es
  1008a6:	8e e0                	mov    %eax,%fs
  1008a8:	8e e8                	mov    %eax,%gs
  1008aa:	e8 01 ff ff ff       	call   1007b0 <keyboardDriver>
  1008af:	e4 60                	in     $0x60,%al
  1008b1:	0f b6 d8             	movzbl %al,%ebx
  1008b4:	b0 20                	mov    $0x20,%al
  1008b6:	e6 20                	out    %al,$0x20
  1008b8:	0f a9                	pop    %gs
  1008ba:	0f a1                	pop    %fs
  1008bc:	07                   	pop    %es
  1008bd:	1f                   	pop    %ds
  1008be:	61                   	popa
  1008bf:	cf                   	iret

001008c0 <timerInterruptHandler>:
  1008c0:	cf                   	iret
  1008c1:	66 90                	xchg   %ax,%ax
  1008c3:	66 90                	xchg   %ax,%ax
  1008c5:	66 90                	xchg   %ax,%ax
  1008c7:	66 90                	xchg   %ax,%ax
  1008c9:	66 90                	xchg   %ax,%ax
  1008cb:	66 90                	xchg   %ax,%ax
  1008cd:	66 90                	xchg   %ax,%ax
  1008cf:	90                   	nop

001008d0 <setKeyboardScancode>:
  1008d0:	55                   	push   %ebp
  1008d1:	89 e5                	mov    %esp,%ebp
  1008d3:	53                   	push   %ebx
  1008d4:	83 ec 0c             	sub    $0xc,%esp
  1008d7:	8b 5d 08             	mov    0x8(%ebp),%ebx
  1008da:	68 f0 00 00 00       	push   $0xf0
  1008df:	6a 60                	push   $0x60
  1008e1:	0f b6 db             	movzbl %bl,%ebx
  1008e4:	e8 47 00 00 00       	call   100930 <outb>
  1008e9:	e8 52 00 00 00       	call   100940 <io_wait>
  1008ee:	58                   	pop    %eax
  1008ef:	5a                   	pop    %edx
  1008f0:	53                   	push   %ebx
  1008f1:	6a 60                	push   $0x60
  1008f3:	e8 38 00 00 00       	call   100930 <outb>
  1008f8:	c7 04 24 60 00 00 00 	movl   $0x60,(%esp)
  1008ff:	e8 1c 00 00 00       	call   100920 <inb>
  100904:	83 c4 10             	add    $0x10,%esp
  100907:	8b 5d fc             	mov    -0x4(%ebp),%ebx
  10090a:	c7 45 08 61 00 00 00 	movl   $0x61,0x8(%ebp)
  100911:	c9                   	leave
  100912:	e9 09 00 00 00       	jmp    100920 <inb>
  100917:	66 90                	xchg   %ax,%ax
  100919:	66 90                	xchg   %ax,%ax
  10091b:	66 90                	xchg   %ax,%ax
  10091d:	66 90                	xchg   %ax,%ax
  10091f:	90                   	nop

00100920 <inb>:
  100920:	55                   	push   %ebp
  100921:	89 e5                	mov    %esp,%ebp
  100923:	8b 55 08             	mov    0x8(%ebp),%edx
  100926:	ec                   	in     (%dx),%al
  100927:	5d                   	pop    %ebp
  100928:	c3                   	ret
  100929:	8d b4 26 00 00 00 00 	lea    0x0(%esi,%eiz,1),%esi

00100930 <outb>:
  100930:	55                   	push   %ebp
  100931:	89 e5                	mov    %esp,%ebp
  100933:	0f b7 55 08          	movzwl 0x8(%ebp),%edx
  100937:	0f b6 45 0c          	movzbl 0xc(%ebp),%eax
  10093b:	ee                   	out    %al,(%dx)
  10093c:	5d                   	pop    %ebp
  10093d:	c3                   	ret
  10093e:	66 90                	xchg   %ax,%ax

00100940 <io_wait>:
  100940:	31 c0                	xor    %eax,%eax
  100942:	e6 80                	out    %al,$0x80
  100944:	c3                   	ret
  100945:	66 90                	xchg   %ax,%ax
  100947:	66 90                	xchg   %ax,%ax
  100949:	66 90                	xchg   %ax,%ax
  10094b:	66 90                	xchg   %ax,%ax
  10094d:	66 90                	xchg   %ax,%ax
  10094f:	90                   	nop

00100950 <PICSendEOI>:
  100950:	55                   	push   %ebp
  100951:	89 e5                	mov    %esp,%ebp
  100953:	83 ec 08             	sub    $0x8,%esp
  100956:	80 7d 08 07          	cmpb   $0x7,0x8(%ebp)
  10095a:	77 14                	ja     100970 <PICSendEOI+0x20>
  10095c:	83 ec 08             	sub    $0x8,%esp
  10095f:	6a 20                	push   $0x20
  100961:	6a 20                	push   $0x20
  100963:	e8 c8 ff ff ff       	call   100930 <outb>
  100968:	83 c4 10             	add    $0x10,%esp
  10096b:	c9                   	leave
  10096c:	c3                   	ret
  10096d:	8d 76 00             	lea    0x0(%esi),%esi
  100970:	83 ec 08             	sub    $0x8,%esp
  100973:	6a 20                	push   $0x20
  100975:	68 a0 00 00 00       	push   $0xa0
  10097a:	e8 b1 ff ff ff       	call   100930 <outb>
  10097f:	83 c4 10             	add    $0x10,%esp
  100982:	eb d8                	jmp    10095c <PICSendEOI+0xc>
  100984:	2e 8d b4 26 00 00 00 	lea    %cs:0x0(%esi,%eiz,1),%esi
  10098b:	00 
  10098c:	8d 74 26 00          	lea    0x0(%esi,%eiz,1),%esi

00100990 <PICRemap>:
  100990:	55                   	push   %ebp
  100991:	89 e5                	mov    %esp,%ebp
  100993:	57                   	push   %edi
  100994:	56                   	push   %esi
  100995:	53                   	push   %ebx
  100996:	83 ec 28             	sub    $0x28,%esp
  100999:	8b 7d 08             	mov    0x8(%ebp),%edi
  10099c:	8b 75 0c             	mov    0xc(%ebp),%esi
  10099f:	6a 21                	push   $0x21
  1009a1:	e8 7a ff ff ff       	call   100920 <inb>
  1009a6:	c7 04 24 a1 00 00 00 	movl   $0xa1,(%esp)
  1009ad:	0f b6 d8             	movzbl %al,%ebx
  1009b0:	e8 6b ff ff ff       	call   100920 <inb>
  1009b5:	88 45 e7             	mov    %al,-0x19(%ebp)
  1009b8:	58                   	pop    %eax
  1009b9:	5a                   	pop    %edx
  1009ba:	6a 11                	push   $0x11
  1009bc:	6a 20                	push   $0x20
  1009be:	e8 6d ff ff ff       	call   100930 <outb>
  1009c3:	e8 78 ff ff ff       	call   100940 <io_wait>
  1009c8:	59                   	pop    %ecx
  1009c9:	58                   	pop    %eax
  1009ca:	6a 11                	push   $0x11
  1009cc:	68 a0 00 00 00       	push   $0xa0
  1009d1:	e8 5a ff ff ff       	call   100930 <outb>
  1009d6:	e8 65 ff ff ff       	call   100940 <io_wait>
  1009db:	58                   	pop    %eax
  1009dc:	5a                   	pop    %edx
  1009dd:	89 fa                	mov    %edi,%edx
  1009df:	0f b6 fa             	movzbl %dl,%edi
  1009e2:	57                   	push   %edi
  1009e3:	6a 21                	push   $0x21
  1009e5:	e8 46 ff ff ff       	call   100930 <outb>
  1009ea:	e8 51 ff ff ff       	call   100940 <io_wait>
  1009ef:	59                   	pop    %ecx
  1009f0:	89 f1                	mov    %esi,%ecx
  1009f2:	5f                   	pop    %edi
  1009f3:	0f b6 f1             	movzbl %cl,%esi
  1009f6:	56                   	push   %esi
  1009f7:	68 a1 00 00 00       	push   $0xa1
  1009fc:	e8 2f ff ff ff       	call   100930 <outb>
  100a01:	e8 3a ff ff ff       	call   100940 <io_wait>
  100a06:	58                   	pop    %eax
  100a07:	5a                   	pop    %edx
  100a08:	6a 04                	push   $0x4
  100a0a:	6a 21                	push   $0x21
  100a0c:	e8 1f ff ff ff       	call   100930 <outb>
  100a11:	e8 2a ff ff ff       	call   100940 <io_wait>
  100a16:	59                   	pop    %ecx
  100a17:	5e                   	pop    %esi
  100a18:	6a 02                	push   $0x2
  100a1a:	68 a1 00 00 00       	push   $0xa1
  100a1f:	e8 0c ff ff ff       	call   100930 <outb>
  100a24:	e8 17 ff ff ff       	call   100940 <io_wait>
  100a29:	5f                   	pop    %edi
  100a2a:	58                   	pop    %eax
  100a2b:	6a 01                	push   $0x1
  100a2d:	6a 21                	push   $0x21
  100a2f:	e8 fc fe ff ff       	call   100930 <outb>
  100a34:	e8 07 ff ff ff       	call   100940 <io_wait>
  100a39:	58                   	pop    %eax
  100a3a:	5a                   	pop    %edx
  100a3b:	6a 01                	push   $0x1
  100a3d:	68 a1 00 00 00       	push   $0xa1
  100a42:	e8 e9 fe ff ff       	call   100930 <outb>
  100a47:	e8 f4 fe ff ff       	call   100940 <io_wait>
  100a4c:	59                   	pop    %ecx
  100a4d:	5e                   	pop    %esi
  100a4e:	53                   	push   %ebx
  100a4f:	6a 21                	push   $0x21
  100a51:	e8 da fe ff ff       	call   100930 <outb>
  100a56:	0f b6 45 e7          	movzbl -0x19(%ebp),%eax
  100a5a:	83 c4 10             	add    $0x10,%esp
  100a5d:	c7 45 08 a1 00 00 00 	movl   $0xa1,0x8(%ebp)
  100a64:	89 45 0c             	mov    %eax,0xc(%ebp)
  100a67:	8d 65 f4             	lea    -0xc(%ebp),%esp
  100a6a:	5b                   	pop    %ebx
  100a6b:	5e                   	pop    %esi
  100a6c:	5f                   	pop    %edi
  100a6d:	5d                   	pop    %ebp
  100a6e:	e9 bd fe ff ff       	jmp    100930 <outb>
  100a73:	66 90                	xchg   %ax,%ax
  100a75:	66 90                	xchg   %ax,%ax
  100a77:	66 90                	xchg   %ax,%ax
  100a79:	66 90                	xchg   %ax,%ax
  100a7b:	66 90                	xchg   %ax,%ax
  100a7d:	66 90                	xchg   %ax,%ax
  100a7f:	90                   	nop

00100a80 <kernelMain>:
  100a80:	55                   	push   %ebp
  100a81:	89 e5                	mov    %esp,%ebp
  100a83:	83 ec 08             	sub    $0x8,%esp
  100a86:	e8 f5 f6 ff ff       	call   100180 <terminal_initialize>
  100a8b:	83 ec 0c             	sub    $0xc,%esp
  100a8e:	68 1a 11 10 00       	push   $0x10111a
  100a93:	e8 68 00 00 00       	call   100b00 <printf>
  100a98:	e8 73 f9 ff ff       	call   100410 <setupGDT>
  100a9d:	c7 04 24 2e 11 10 00 	movl   $0x10112e,(%esp)
  100aa4:	e8 57 00 00 00       	call   100b00 <printf>
  100aa9:	c7 04 24 02 00 00 00 	movl   $0x2,(%esp)
  100ab0:	e8 1b fe ff ff       	call   1008d0 <setKeyboardScancode>
  100ab5:	c7 04 24 a0 11 10 00 	movl   $0x1011a0,(%esp)
  100abc:	e8 3f 00 00 00       	call   100b00 <printf>
  100ac1:	e8 9a fa ff ff       	call   100560 <setupIDT>
  100ac6:	c7 04 24 4c 11 10 00 	movl   $0x10114c,(%esp)
  100acd:	e8 2e 00 00 00       	call   100b00 <printf>
  100ad2:	58                   	pop    %eax
  100ad3:	5a                   	pop    %edx
  100ad4:	6a 28                	push   $0x28
  100ad6:	6a 20                	push   $0x20
  100ad8:	e8 b3 fe ff ff       	call   100990 <PICRemap>
  100add:	c7 04 24 6a 11 10 00 	movl   $0x10116a,(%esp)
  100ae4:	e8 17 00 00 00       	call   100b00 <printf>
  100ae9:	83 c4 10             	add    $0x10,%esp
  100aec:	8d 74 26 00          	lea    0x0(%esi,%eiz,1),%esi
  100af0:	f4                   	hlt
  100af1:	eb fd                	jmp    100af0 <kernelMain+0x70>
  100af3:	66 90                	xchg   %ax,%ax
  100af5:	66 90                	xchg   %ax,%ax
  100af7:	66 90                	xchg   %ax,%ax
  100af9:	66 90                	xchg   %ax,%ax
  100afb:	66 90                	xchg   %ax,%ax
  100afd:	66 90                	xchg   %ax,%ax
  100aff:	90                   	nop

00100b00 <printf>:
  100b00:	55                   	push   %ebp
  100b01:	89 e5                	mov    %esp,%ebp
  100b03:	57                   	push   %edi
  100b04:	56                   	push   %esi
  100b05:	8d 45 0c             	lea    0xc(%ebp),%eax
  100b08:	53                   	push   %ebx
  100b09:	83 ec 2c             	sub    $0x2c,%esp
  100b0c:	89 45 cc             	mov    %eax,-0x34(%ebp)
  100b0f:	8b 45 08             	mov    0x8(%ebp),%eax
  100b12:	c7 45 d4 00 00 00 00 	movl   $0x0,-0x2c(%ebp)
  100b19:	0f b6 10             	movzbl (%eax),%edx
  100b1c:	84 d2                	test   %dl,%dl
  100b1e:	0f 84 93 00 00 00    	je     100bb7 <printf+0xb7>
  100b24:	89 c3                	mov    %eax,%ebx
  100b26:	2e 8d b4 26 00 00 00 	lea    %cs:0x0(%esi,%eiz,1),%esi
  100b2d:	00 
  100b2e:	66 90                	xchg   %ax,%ax
  100b30:	8b 4d d4             	mov    -0x2c(%ebp),%ecx
  100b33:	b8 ff ff ff 7f       	mov    $0x7fffffff,%eax
  100b38:	29 c8                	sub    %ecx,%eax
  100b3a:	89 45 d0             	mov    %eax,-0x30(%ebp)
  100b3d:	80 fa 25             	cmp    $0x25,%dl
  100b40:	0f 85 55 02 00 00    	jne    100d9b <printf+0x29b>
  100b46:	0f b6 43 01          	movzbl 0x1(%ebx),%eax
  100b4a:	3c 25                	cmp    $0x25,%al
  100b4c:	0f 84 46 02 00 00    	je     100d98 <printf+0x298>
  100b52:	83 e8 62             	sub    $0x62,%eax
  100b55:	3c 11                	cmp    $0x11,%al
  100b57:	77 0f                	ja     100b68 <printf+0x68>
  100b59:	0f b6 c0             	movzbl %al,%eax
  100b5c:	ff 24 85 00 10 10 00 	jmp    *0x101000(,%eax,4)
  100b63:	2e 8d 74 26 00       	lea    %cs:0x0(%esi,%eiz,1),%esi
  100b68:	83 ec 0c             	sub    $0xc,%esp
  100b6b:	53                   	push   %ebx
  100b6c:	e8 bf 03 00 00       	call   100f30 <strlen>
  100b71:	83 c4 10             	add    $0x10,%esp
  100b74:	89 c2                	mov    %eax,%edx
  100b76:	39 45 d0             	cmp    %eax,-0x30(%ebp)
  100b79:	72 35                	jb     100bb0 <printf+0xb0>
  100b7b:	89 de                	mov    %ebx,%esi
  100b7d:	8d 3c 03             	lea    (%ebx,%eax,1),%edi
  100b80:	85 c0                	test   %eax,%eax
  100b82:	0f 84 7a 03 00 00    	je     100f02 <printf+0x402>
  100b88:	89 c3                	mov    %eax,%ebx
  100b8a:	eb 0f                	jmp    100b9b <printf+0x9b>
  100b8c:	8d 74 26 00          	lea    0x0(%esi,%eiz,1),%esi
  100b90:	83 c6 01             	add    $0x1,%esi
  100b93:	39 fe                	cmp    %edi,%esi
  100b95:	0f 84 ac 02 00 00    	je     100e47 <printf+0x347>
  100b9b:	0f be 06             	movsbl (%esi),%eax
  100b9e:	83 ec 0c             	sub    $0xc,%esp
  100ba1:	50                   	push   %eax
  100ba2:	e8 69 03 00 00       	call   100f10 <putchar>
  100ba7:	83 c4 10             	add    $0x10,%esp
  100baa:	83 f8 ff             	cmp    $0xffffffff,%eax
  100bad:	75 e1                	jne    100b90 <printf+0x90>
  100baf:	90                   	nop
  100bb0:	c7 45 d4 ff ff ff ff 	movl   $0xffffffff,-0x2c(%ebp)
  100bb7:	8b 45 d4             	mov    -0x2c(%ebp),%eax
  100bba:	8d 65 f4             	lea    -0xc(%ebp),%esp
  100bbd:	5b                   	pop    %ebx
  100bbe:	5e                   	pop    %esi
  100bbf:	5f                   	pop    %edi
  100bc0:	5d                   	pop    %ebp
  100bc1:	c3                   	ret
  100bc2:	8b 45 cc             	mov    -0x34(%ebp),%eax
  100bc5:	83 ec 0c             	sub    $0xc,%esp
  100bc8:	8b 30                	mov    (%eax),%esi
  100bca:	8d 50 04             	lea    0x4(%eax),%edx
  100bcd:	89 55 cc             	mov    %edx,-0x34(%ebp)
  100bd0:	56                   	push   %esi
  100bd1:	e8 5a 03 00 00       	call   100f30 <strlen>
  100bd6:	83 c4 10             	add    $0x10,%esp
  100bd9:	89 c2                	mov    %eax,%edx
  100bdb:	39 45 d0             	cmp    %eax,-0x30(%ebp)
  100bde:	72 d0                	jb     100bb0 <printf+0xb0>
  100be0:	8d 3c 06             	lea    (%esi,%eax,1),%edi
  100be3:	85 c0                	test   %eax,%eax
  100be5:	0f 84 2a 02 00 00    	je     100e15 <printf+0x315>
  100beb:	89 5d 08             	mov    %ebx,0x8(%ebp)
  100bee:	89 f3                	mov    %esi,%ebx
  100bf0:	89 c6                	mov    %eax,%esi
  100bf2:	eb 0f                	jmp    100c03 <printf+0x103>
  100bf4:	8d 74 26 00          	lea    0x0(%esi,%eiz,1),%esi
  100bf8:	83 c3 01             	add    $0x1,%ebx
  100bfb:	39 fb                	cmp    %edi,%ebx
  100bfd:	0f 84 0d 02 00 00    	je     100e10 <printf+0x310>
  100c03:	0f be 03             	movsbl (%ebx),%eax
  100c06:	83 ec 0c             	sub    $0xc,%esp
  100c09:	50                   	push   %eax
  100c0a:	e8 01 03 00 00       	call   100f10 <putchar>
  100c0f:	83 c4 10             	add    $0x10,%esp
  100c12:	83 f8 ff             	cmp    $0xffffffff,%eax
  100c15:	75 e1                	jne    100bf8 <printf+0xf8>
  100c17:	eb 97                	jmp    100bb0 <printf+0xb0>
  100c19:	8b 45 cc             	mov    -0x34(%ebp),%eax
  100c1c:	c6 45 e6 00          	movb   $0x0,-0x1a(%ebp)
  100c20:	8d 50 04             	lea    0x4(%eax),%edx
  100c23:	89 55 cc             	mov    %edx,-0x34(%ebp)
  100c26:	8b 10                	mov    (%eax),%edx
  100c28:	0f b7 05 9c 11 10 00 	movzwl 0x10119c,%eax
  100c2f:	66 89 45 dc          	mov    %ax,-0x24(%ebp)
  100c33:	85 d2                	test   %edx,%edx
  100c35:	0f 84 18 02 00 00    	je     100e53 <printf+0x353>
  100c3b:	8d 75 e6             	lea    -0x1a(%ebp),%esi
  100c3e:	89 f0                	mov    %esi,%eax
  100c40:	89 d1                	mov    %edx,%ecx
  100c42:	83 e8 01             	sub    $0x1,%eax
  100c45:	83 e1 0f             	and    $0xf,%ecx
  100c48:	c1 ea 04             	shr    $0x4,%edx
  100c4b:	0f b6 89 85 11 10 00 	movzbl 0x101185(%ecx),%ecx
  100c52:	88 08                	mov    %cl,(%eax)
  100c54:	75 ea                	jne    100c40 <printf+0x140>
  100c56:	39 f0                	cmp    %esi,%eax
  100c58:	0f 84 f5 01 00 00    	je     100e53 <printf+0x353>
  100c5e:	89 f2                	mov    %esi,%edx
  100c60:	29 c2                	sub    %eax,%edx
  100c62:	39 55 d0             	cmp    %edx,-0x30(%ebp)
  100c65:	0f 82 45 ff ff ff    	jb     100bb0 <printf+0xb0>
  100c6b:	85 d2                	test   %edx,%edx
  100c6d:	0f 84 a2 01 00 00    	je     100e15 <printf+0x315>
  100c73:	89 5d 08             	mov    %ebx,0x8(%ebp)
  100c76:	8d 3c 10             	lea    (%eax,%edx,1),%edi
  100c79:	89 c3                	mov    %eax,%ebx
  100c7b:	89 d6                	mov    %edx,%esi
  100c7d:	eb 0c                	jmp    100c8b <printf+0x18b>
  100c7f:	90                   	nop
  100c80:	83 c3 01             	add    $0x1,%ebx
  100c83:	39 fb                	cmp    %edi,%ebx
  100c85:	0f 84 85 01 00 00    	je     100e10 <printf+0x310>
  100c8b:	0f be 03             	movsbl (%ebx),%eax
  100c8e:	83 ec 0c             	sub    $0xc,%esp
  100c91:	50                   	push   %eax
  100c92:	e8 79 02 00 00       	call   100f10 <putchar>
  100c97:	83 c4 10             	add    $0x10,%esp
  100c9a:	83 f8 ff             	cmp    $0xffffffff,%eax
  100c9d:	75 e1                	jne    100c80 <printf+0x180>
  100c9f:	e9 0c ff ff ff       	jmp    100bb0 <printf+0xb0>
  100ca4:	8b 55 cc             	mov    -0x34(%ebp),%edx
  100ca7:	c6 45 e7 00          	movb   $0x0,-0x19(%ebp)
  100cab:	83 c3 02             	add    $0x2,%ebx
  100cae:	89 d0                	mov    %edx,%eax
  100cb0:	83 c2 04             	add    $0x4,%edx
  100cb3:	8b 38                	mov    (%eax),%edi
  100cb5:	89 55 cc             	mov    %edx,-0x34(%ebp)
  100cb8:	85 ff                	test   %edi,%edi
  100cba:	0f 85 af 01 00 00    	jne    100e6f <printf+0x36f>
  100cc0:	0f b6 13             	movzbl (%ebx),%edx
  100cc3:	84 d2                	test   %dl,%dl
  100cc5:	0f 85 65 fe ff ff    	jne    100b30 <printf+0x30>
  100ccb:	e9 e7 fe ff ff       	jmp    100bb7 <printf+0xb7>
  100cd0:	8b 55 cc             	mov    -0x34(%ebp),%edx
  100cd3:	89 d0                	mov    %edx,%eax
  100cd5:	83 c2 04             	add    $0x4,%edx
  100cd8:	89 55 cc             	mov    %edx,-0x34(%ebp)
  100cdb:	8b 55 d0             	mov    -0x30(%ebp),%edx
  100cde:	85 d2                	test   %edx,%edx
  100ce0:	0f 84 ca fe ff ff    	je     100bb0 <printf+0xb0>
  100ce6:	0f be 00             	movsbl (%eax),%eax
  100ce9:	83 ec 0c             	sub    $0xc,%esp
  100cec:	50                   	push   %eax
  100ced:	e8 1e 02 00 00       	call   100f10 <putchar>
  100cf2:	83 c4 10             	add    $0x10,%esp
  100cf5:	83 f8 ff             	cmp    $0xffffffff,%eax
  100cf8:	0f 84 b2 fe ff ff    	je     100bb0 <printf+0xb0>
  100cfe:	83 45 d4 01          	addl   $0x1,-0x2c(%ebp)
  100d02:	83 c3 02             	add    $0x2,%ebx
  100d05:	eb b9                	jmp    100cc0 <printf+0x1c0>
  100d07:	8b 45 cc             	mov    -0x34(%ebp),%eax
  100d0a:	c6 45 e6 00          	movb   $0x0,-0x1a(%ebp)
  100d0e:	8d 50 04             	lea    0x4(%eax),%edx
  100d11:	8b 38                	mov    (%eax),%edi
  100d13:	0f b7 05 9e 11 10 00 	movzwl 0x10119e,%eax
  100d1a:	89 55 cc             	mov    %edx,-0x34(%ebp)
  100d1d:	66 89 45 dc          	mov    %ax,-0x24(%ebp)
  100d21:	85 ff                	test   %edi,%edi
  100d23:	0f 84 d2 01 00 00    	je     100efb <printf+0x3fb>
  100d29:	8d 75 e6             	lea    -0x1a(%ebp),%esi
  100d2c:	89 f8                	mov    %edi,%eax
  100d2e:	89 f2                	mov    %esi,%edx
  100d30:	89 c1                	mov    %eax,%ecx
  100d32:	83 ea 01             	sub    $0x1,%edx
  100d35:	83 e1 01             	and    $0x1,%ecx
  100d38:	d1 e8                	shr    $1,%eax
  100d3a:	0f b6 89 96 11 10 00 	movzbl 0x101196(%ecx),%ecx
  100d41:	88 0a                	mov    %cl,(%edx)
  100d43:	75 eb                	jne    100d30 <printf+0x230>
  100d45:	0f bd ff             	bsr    %edi,%edi
  100d48:	89 f0                	mov    %esi,%eax
  100d4a:	83 f7 1f             	xor    $0x1f,%edi
  100d4d:	8d 7c 3e e0          	lea    -0x20(%esi,%edi,1),%edi
  100d51:	29 f8                	sub    %edi,%eax
  100d53:	39 45 d0             	cmp    %eax,-0x30(%ebp)
  100d56:	0f 82 54 fe ff ff    	jb     100bb0 <printf+0xb0>
  100d5c:	85 c0                	test   %eax,%eax
  100d5e:	0f 84 97 01 00 00    	je     100efb <printf+0x3fb>
  100d64:	89 5d 08             	mov    %ebx,0x8(%ebp)
  100d67:	89 fb                	mov    %edi,%ebx
  100d69:	89 c7                	mov    %eax,%edi
  100d6b:	eb 0e                	jmp    100d7b <printf+0x27b>
  100d6d:	8d 76 00             	lea    0x0(%esi),%esi
  100d70:	83 c3 01             	add    $0x1,%ebx
  100d73:	39 de                	cmp    %ebx,%esi
  100d75:	0f 84 bc 00 00 00    	je     100e37 <printf+0x337>
  100d7b:	0f be 03             	movsbl (%ebx),%eax
  100d7e:	83 ec 0c             	sub    $0xc,%esp
  100d81:	50                   	push   %eax
  100d82:	e8 89 01 00 00       	call   100f10 <putchar>
  100d87:	83 c4 10             	add    $0x10,%esp
  100d8a:	83 f8 ff             	cmp    $0xffffffff,%eax
  100d8d:	75 e1                	jne    100d70 <printf+0x270>
  100d8f:	e9 1c fe ff ff       	jmp    100bb0 <printf+0xb0>
  100d94:	8d 74 26 00          	lea    0x0(%esi,%eiz,1),%esi
  100d98:	83 c3 01             	add    $0x1,%ebx
  100d9b:	0f b6 43 01          	movzbl 0x1(%ebx),%eax
  100d9f:	84 c0                	test   %al,%al
  100da1:	74 7d                	je     100e20 <printf+0x320>
  100da3:	3c 25                	cmp    $0x25,%al
  100da5:	74 79                	je     100e20 <printf+0x320>
  100da7:	be 01 00 00 00       	mov    $0x1,%esi
  100dac:	8d 74 26 00          	lea    0x0(%esi,%eiz,1),%esi
  100db0:	83 c6 01             	add    $0x1,%esi
  100db3:	0f b6 04 33          	movzbl (%ebx,%esi,1),%eax
  100db7:	84 c0                	test   %al,%al
  100db9:	74 04                	je     100dbf <printf+0x2bf>
  100dbb:	3c 25                	cmp    $0x25,%al
  100dbd:	75 f1                	jne    100db0 <printf+0x2b0>
  100dbf:	39 75 d0             	cmp    %esi,-0x30(%ebp)
  100dc2:	0f 82 e8 fd ff ff    	jb     100bb0 <printf+0xb0>
  100dc8:	8d 3c 33             	lea    (%ebx,%esi,1),%edi
  100dcb:	89 f8                	mov    %edi,%eax
  100dcd:	89 45 d0             	mov    %eax,-0x30(%ebp)
  100dd0:	eb 0d                	jmp    100ddf <printf+0x2df>
  100dd2:	8d b6 00 00 00 00    	lea    0x0(%esi),%esi
  100dd8:	83 c3 01             	add    $0x1,%ebx
  100ddb:	39 fb                	cmp    %edi,%ebx
  100ddd:	74 21                	je     100e00 <printf+0x300>
  100ddf:	0f be 03             	movsbl (%ebx),%eax
  100de2:	83 ec 0c             	sub    $0xc,%esp
  100de5:	50                   	push   %eax
  100de6:	e8 25 01 00 00       	call   100f10 <putchar>
  100deb:	83 c4 10             	add    $0x10,%esp
  100dee:	83 f8 ff             	cmp    $0xffffffff,%eax
  100df1:	75 e5                	jne    100dd8 <printf+0x2d8>
  100df3:	e9 b8 fd ff ff       	jmp    100bb0 <printf+0xb0>
  100df8:	2e 8d b4 26 00 00 00 	lea    %cs:0x0(%esi,%eiz,1),%esi
  100dff:	00 
  100e00:	8b 45 d0             	mov    -0x30(%ebp),%eax
  100e03:	01 75 d4             	add    %esi,-0x2c(%ebp)
  100e06:	0f b6 10             	movzbl (%eax),%edx
  100e09:	89 c3                	mov    %eax,%ebx
  100e0b:	e9 b3 fe ff ff       	jmp    100cc3 <printf+0x1c3>
  100e10:	8b 5d 08             	mov    0x8(%ebp),%ebx
  100e13:	89 f2                	mov    %esi,%edx
  100e15:	01 55 d4             	add    %edx,-0x2c(%ebp)
  100e18:	83 c3 02             	add    $0x2,%ebx
  100e1b:	e9 a0 fe ff ff       	jmp    100cc0 <printf+0x1c0>
  100e20:	8b 4d d0             	mov    -0x30(%ebp),%ecx
  100e23:	85 c9                	test   %ecx,%ecx
  100e25:	0f 84 85 fd ff ff    	je     100bb0 <printf+0xb0>
  100e2b:	8d 43 01             	lea    0x1(%ebx),%eax
  100e2e:	be 01 00 00 00       	mov    $0x1,%esi
  100e33:	89 c7                	mov    %eax,%edi
  100e35:	eb 96                	jmp    100dcd <printf+0x2cd>
  100e37:	8b 5d 08             	mov    0x8(%ebp),%ebx
  100e3a:	89 f8                	mov    %edi,%eax
  100e3c:	01 45 d4             	add    %eax,-0x2c(%ebp)
  100e3f:	83 c3 02             	add    $0x2,%ebx
  100e42:	e9 79 fe ff ff       	jmp    100cc0 <printf+0x1c0>
  100e47:	89 da                	mov    %ebx,%edx
  100e49:	01 55 d4             	add    %edx,-0x2c(%ebp)
  100e4c:	89 fb                	mov    %edi,%ebx
  100e4e:	e9 6d fe ff ff       	jmp    100cc0 <printf+0x1c0>
  100e53:	8b 45 d0             	mov    -0x30(%ebp),%eax
  100e56:	c6 45 e5 30          	movb   $0x30,-0x1b(%ebp)
  100e5a:	85 c0                	test   %eax,%eax
  100e5c:	0f 84 4e fd ff ff    	je     100bb0 <printf+0xb0>
  100e62:	8d 45 e5             	lea    -0x1b(%ebp),%eax
  100e65:	ba 01 00 00 00       	mov    $0x1,%edx
  100e6a:	e9 04 fe ff ff       	jmp    100c73 <printf+0x173>
  100e6f:	89 fe                	mov    %edi,%esi
  100e71:	89 7d c8             	mov    %edi,-0x38(%ebp)
  100e74:	8d 4d e7             	lea    -0x19(%ebp),%ecx
  100e77:	f7 de                	neg    %esi
  100e79:	89 5d 08             	mov    %ebx,0x8(%ebp)
  100e7c:	0f 48 f7             	cmovs  %edi,%esi
  100e7f:	90                   	nop
  100e80:	b8 cd cc cc cc       	mov    $0xcccccccd,%eax
  100e85:	89 cb                	mov    %ecx,%ebx
  100e87:	83 e9 01             	sub    $0x1,%ecx
  100e8a:	f7 e6                	mul    %esi
  100e8c:	89 f0                	mov    %esi,%eax
  100e8e:	c1 ea 03             	shr    $0x3,%edx
  100e91:	8d 3c 92             	lea    (%edx,%edx,4),%edi
  100e94:	01 ff                	add    %edi,%edi
  100e96:	29 f8                	sub    %edi,%eax
  100e98:	83 c0 30             	add    $0x30,%eax
  100e9b:	88 01                	mov    %al,(%ecx)
  100e9d:	89 f0                	mov    %esi,%eax
  100e9f:	89 d6                	mov    %edx,%esi
  100ea1:	83 f8 09             	cmp    $0x9,%eax
  100ea4:	77 da                	ja     100e80 <printf+0x380>
  100ea6:	8b 7d c8             	mov    -0x38(%ebp),%edi
  100ea9:	89 d8                	mov    %ebx,%eax
  100eab:	8b 5d 08             	mov    0x8(%ebp),%ebx
  100eae:	85 ff                	test   %edi,%edi
  100eb0:	79 07                	jns    100eb9 <printf+0x3b9>
  100eb2:	c6 41 ff 2d          	movb   $0x2d,-0x1(%ecx)
  100eb6:	8d 48 fe             	lea    -0x2(%eax),%ecx
  100eb9:	8d 7d e7             	lea    -0x19(%ebp),%edi
  100ebc:	29 cf                	sub    %ecx,%edi
  100ebe:	39 7d d0             	cmp    %edi,-0x30(%ebp)
  100ec1:	0f 82 e9 fc ff ff    	jb     100bb0 <printf+0xb0>
  100ec7:	89 ce                	mov    %ecx,%esi
  100ec9:	85 ff                	test   %edi,%edi
  100ecb:	75 0d                	jne    100eda <printf+0x3da>
  100ecd:	eb 24                	jmp    100ef3 <printf+0x3f3>
  100ecf:	90                   	nop
  100ed0:	83 c6 01             	add    $0x1,%esi
  100ed3:	8d 45 e7             	lea    -0x19(%ebp),%eax
  100ed6:	39 f0                	cmp    %esi,%eax
  100ed8:	74 19                	je     100ef3 <printf+0x3f3>
  100eda:	0f be 06             	movsbl (%esi),%eax
  100edd:	83 ec 0c             	sub    $0xc,%esp
  100ee0:	50                   	push   %eax
  100ee1:	e8 2a 00 00 00       	call   100f10 <putchar>
  100ee6:	83 c4 10             	add    $0x10,%esp
  100ee9:	83 f8 ff             	cmp    $0xffffffff,%eax
  100eec:	75 e2                	jne    100ed0 <printf+0x3d0>
  100eee:	e9 bd fc ff ff       	jmp    100bb0 <printf+0xb0>
  100ef3:	01 7d d4             	add    %edi,-0x2c(%ebp)
  100ef6:	e9 c5 fd ff ff       	jmp    100cc0 <printf+0x1c0>
  100efb:	31 c0                	xor    %eax,%eax
  100efd:	e9 3a ff ff ff       	jmp    100e3c <printf+0x33c>
  100f02:	89 df                	mov    %ebx,%edi
  100f04:	e9 40 ff ff ff       	jmp    100e49 <printf+0x349>
  100f09:	66 90                	xchg   %ax,%ax
  100f0b:	66 90                	xchg   %ax,%ax
  100f0d:	66 90                	xchg   %ax,%ax
  100f0f:	90                   	nop

00100f10 <putchar>:
  100f10:	55                   	push   %ebp
  100f11:	89 e5                	mov    %esp,%ebp
  100f13:	53                   	push   %ebx
  100f14:	8d 45 f7             	lea    -0x9(%ebp),%eax
  100f17:	83 ec 1c             	sub    $0x1c,%esp
  100f1a:	8b 5d 08             	mov    0x8(%ebp),%ebx
  100f1d:	6a 01                	push   $0x1
  100f1f:	50                   	push   %eax
  100f20:	88 5d f7             	mov    %bl,-0x9(%ebp)
  100f23:	e8 08 f4 ff ff       	call   100330 <terminal_write>
  100f28:	89 d8                	mov    %ebx,%eax
  100f2a:	8b 5d fc             	mov    -0x4(%ebp),%ebx
  100f2d:	c9                   	leave
  100f2e:	c3                   	ret
  100f2f:	90                   	nop

00100f30 <strlen>:
  100f30:	55                   	push   %ebp
  100f31:	31 c0                	xor    %eax,%eax
  100f33:	89 e5                	mov    %esp,%ebp
  100f35:	8b 55 08             	mov    0x8(%ebp),%edx
  100f38:	80 3a 00             	cmpb   $0x0,(%edx)
  100f3b:	74 0c                	je     100f49 <strlen+0x19>
  100f3d:	8d 76 00             	lea    0x0(%esi),%esi
  100f40:	83 c0 01             	add    $0x1,%eax
  100f43:	80 3c 02 00          	cmpb   $0x0,(%edx,%eax,1)
  100f47:	75 f7                	jne    100f40 <strlen+0x10>
  100f49:	5d                   	pop    %ebp
  100f4a:	c3                   	ret
  100f4b:	66 90                	xchg   %ax,%ax
  100f4d:	66 90                	xchg   %ax,%ax
  100f4f:	90                   	nop

00100f50 <__do_global_ctors_aux>:
  100f50:	a1 7c 20 10 00       	mov    0x10207c,%eax
  100f55:	83 f8 ff             	cmp    $0xffffffff,%eax
  100f58:	74 2e                	je     100f88 <__do_global_ctors_aux+0x38>
  100f5a:	55                   	push   %ebp
  100f5b:	89 e5                	mov    %esp,%ebp
  100f5d:	53                   	push   %ebx
  100f5e:	bb 7c 20 10 00       	mov    $0x10207c,%ebx
  100f63:	83 ec 04             	sub    $0x4,%esp
  100f66:	2e 8d b4 26 00 00 00 	lea    %cs:0x0(%esi,%eiz,1),%esi
  100f6d:	00 
  100f6e:	66 90                	xchg   %ax,%ax
  100f70:	ff d0                	call   *%eax
  100f72:	8b 43 fc             	mov    -0x4(%ebx),%eax
  100f75:	83 eb 04             	sub    $0x4,%ebx
  100f78:	83 f8 ff             	cmp    $0xffffffff,%eax
  100f7b:	75 f3                	jne    100f70 <__do_global_ctors_aux+0x20>
  100f7d:	8b 5d fc             	mov    -0x4(%ebp),%ebx
  100f80:	c9                   	leave
  100f81:	c3                   	ret
  100f82:	8d b6 00 00 00 00    	lea    0x0(%esi),%esi
  100f88:	c3                   	ret

Disassembly of section .init:

00100f89 <_init>:
  100f89:	55                   	push   %ebp
  100f8a:	89 e5                	mov    %esp,%ebp
  100f8c:	e8 9f f1 ff ff       	call   100130 <frame_dummy>
  100f91:	e8 ba ff ff ff       	call   100f50 <__do_global_ctors_aux>
  100f96:	5d                   	pop    %ebp
  100f97:	c3                   	ret

Disassembly of section .fini:

00100f98 <_fini>:
  100f98:	55                   	push   %ebp
  100f99:	89 e5                	mov    %esp,%ebp
  100f9b:	e8 10 f1 ff ff       	call   1000b0 <__do_global_dtors_aux>
  100fa0:	5d                   	pop    %ebp
  100fa1:	c3                   	ret

Disassembly of section .rodata:

00101000 <.rodata>:
  101000:	07                   	pop    %es
  101001:	0d 10 00 d0 0c       	or     $0xcd00010,%eax
  101006:	10 00                	adc    %al,(%eax)
  101008:	68 0b 10 00 68       	push   $0x6800100b
  10100d:	0b 10                	or     (%eax),%edx
  10100f:	00 68 0b             	add    %ch,0xb(%eax)
  101012:	10 00                	adc    %al,(%eax)
  101014:	68 0b 10 00 68       	push   $0x6800100b
  101019:	0b 10                	or     (%eax),%edx
  10101b:	00 a4 0c 10 00 68 0b 	add    %ah,0xb680010(%esp,%ecx,1)
  101022:	10 00                	adc    %al,(%eax)
  101024:	68 0b 10 00 68       	push   $0x6800100b
  101029:	0b 10                	or     (%eax),%edx
  10102b:	00 68 0b             	add    %ch,0xb(%eax)
  10102e:	10 00                	adc    %al,(%eax)
  101030:	68 0b 10 00 68       	push   $0x6800100b
  101035:	0b 10                	or     (%eax),%edx
  101037:	00 19                	add    %bl,(%ecx)
  101039:	0c 10                	or     $0x10,%al
  10103b:	00 68 0b             	add    %ch,0xb(%eax)
  10103e:	10 00                	adc    %al,(%eax)
  101040:	68 0b 10 00 c2       	push   $0xc200100b
  101045:	0b 10                	or     (%eax),%edx
	...

Disassembly of section .eh_frame:

00101048 <__EH_FRAME_BEGIN__>:
  101048:	00 00                	add    %al,(%eax)
	...

Disassembly of section .rodata.str1.1:

0010104c <.rodata.str1.1>:
  10104c:	47                   	inc    %edi
  10104d:	44                   	inc    %esp
  10104e:	54                   	push   %esp
  10104f:	20 42 61             	and    %al,0x61(%edx)
  101052:	73 65                	jae    1010b9 <__EH_FRAME_BEGIN__+0x71>
  101054:	3a 20                	cmp    (%eax),%ah
  101056:	25 69 0a 00 47       	and    $0x47000a69,%eax
  10105b:	44                   	inc    %esp
  10105c:	54                   	push   %esp
  10105d:	20 4c 69 6d          	and    %cl,0x6d(%ecx,%ebp,2)
  101061:	69 74 3a 20 25 69 0a 	imul   $0xa6925,0x20(%edx,%edi,1),%esi
  101068:	00 
  101069:	47                   	inc    %edi
  10106a:	65 6e                	outsb  %gs:(%esi),(%dx)
  10106c:	65 72 69             	gs jb  1010d8 <__EH_FRAME_BEGIN__+0x90>
  10106f:	63 20                	arpl   %esp,(%eax)
  101071:	49                   	dec    %ecx
  101072:	53                   	push   %ebx
  101073:	52                   	push   %edx
  101074:	3a 20                	cmp    (%eax),%ah
  101076:	25 69 20 0a 00       	and    $0xa2069,%eax
  10107b:	4b                   	dec    %ebx
  10107c:	65 79 62             	gs jns 1010e1 <__EH_FRAME_BEGIN__+0x99>
  10107f:	6f                   	outsl  %ds:(%esi),(%dx)
  101080:	61                   	popa
  101081:	72 64                	jb     1010e7 <__EH_FRAME_BEGIN__+0x9f>
  101083:	20 49 53             	and    %cl,0x53(%ecx)
  101086:	52                   	push   %edx
  101087:	3a 20                	cmp    (%eax),%ah
  101089:	25 69 20 0a 00       	and    $0xa2069,%eax
  10108e:	4b                   	dec    %ebx
  10108f:	65 79 62             	gs jns 1010f4 <__EH_FRAME_BEGIN__+0xac>
  101092:	6f                   	outsl  %ds:(%esi),(%dx)
  101093:	61                   	popa
  101094:	72 64                	jb     1010fa <__EH_FRAME_BEGIN__+0xb2>
  101096:	20 49 53             	and    %cl,0x53(%ecx)
  101099:	52                   	push   %edx
  10109a:	20 41 64             	and    %al,0x64(%ecx)
  10109d:	64 72 65             	fs jb  101105 <__EH_FRAME_BEGIN__+0xbd>
  1010a0:	73 73                	jae    101115 <__EH_FRAME_BEGIN__+0xcd>
  1010a2:	3a 20                	cmp    (%eax),%ah
  1010a4:	25 70 0a 00 54       	and    $0x54000a70,%eax
  1010a9:	69 6d 65 72 20 74 69 	imul   $0x69742072,0x65(%ebp),%ebp
  1010b0:	63 6b 73             	arpl   %ebp,0x73(%ebx)
  1010b3:	3a 20                	cmp    (%eax),%ah
  1010b5:	25 64 0a 00 41       	and    $0x41000a64,%eax
  1010ba:	70 70                	jo     10112c <__EH_FRAME_BEGIN__+0xe4>
  1010bc:	6c                   	insb   (%dx),%es:(%edi)
  1010bd:	69 65 64 20 63 74 72 	imul   $0x72746320,0x64(%ebp),%esp
  1010c4:	6c                   	insb   (%dx),%es:(%edi)
  1010c5:	20 6d 6f             	and    %ch,0x6f(%ebp)
  1010c8:	64 69 66 69 65 72 20 	imul   $0xa207265,%fs:0x69(%esi),%esp
  1010cf:	0a 
  1010d0:	00 41 70             	add    %al,0x70(%ecx)
  1010d3:	70 6c                	jo     101141 <__EH_FRAME_BEGIN__+0xf9>
  1010d5:	69 65 64 20 61 6c 74 	imul   $0x746c6120,0x64(%ebp),%esp
  1010dc:	20 6d 6f             	and    %ch,0x6f(%ebp)
  1010df:	64 69 66 69 65 72 20 	imul   $0xa207265,%fs:0x69(%esi),%esp
  1010e6:	0a 
  1010e7:	00 52 65             	add    %dl,0x65(%edx)
  1010ea:	6d                   	insl   (%dx),%es:(%edi)
  1010eb:	6f                   	outsl  %ds:(%esi),(%dx)
  1010ec:	76 65                	jbe    101153 <__EH_FRAME_BEGIN__+0x10b>
  1010ee:	64 20 63 74          	and    %ah,%fs:0x74(%ebx)
  1010f2:	72 6c                	jb     101160 <__EH_FRAME_BEGIN__+0x118>
  1010f4:	20 6d 6f             	and    %ch,0x6f(%ebp)
  1010f7:	64 69 66 69 65 72 20 	imul   $0xa207265,%fs:0x69(%esi),%esp
  1010fe:	0a 
  1010ff:	00 52 65             	add    %dl,0x65(%edx)
  101102:	6d                   	insl   (%dx),%es:(%edi)
  101103:	6f                   	outsl  %ds:(%esi),(%dx)
  101104:	76 65                	jbe    10116b <__EH_FRAME_BEGIN__+0x123>
  101106:	64 20 61 6c          	and    %ah,%fs:0x6c(%ecx)
  10110a:	74 20                	je     10112c <__EH_FRAME_BEGIN__+0xe4>
  10110c:	6d                   	insl   (%dx),%es:(%edi)
  10110d:	6f                   	outsl  %ds:(%esi),(%dx)
  10110e:	64 69 66 69 65 72 20 	imul   $0xa207265,%fs:0x69(%esi),%esp
  101115:	0a 
  101116:	00 25 63 00 57 65    	add    %ah,0x65570063
  10111c:	6c                   	insb   (%dx),%es:(%edi)
  10111d:	63 6f 6d             	arpl   %ebp,0x6d(%edi)
  101120:	65 20 74 6f 20       	and    %dh,%gs:0x20(%edi,%ebp,2)
  101125:	43                   	inc    %ebx
  101126:	75 79                	jne    1011a1 <__EH_FRAME_BEGIN__+0x159>
  101128:	4f                   	dec    %edi
  101129:	53                   	push   %ebx
  10112a:	21 20                	and    %esp,(%eax)
  10112c:	0a 00                	or     (%eax),%al
  10112e:	47                   	inc    %edi
  10112f:	44                   	inc    %esp
  101130:	54                   	push   %esp
  101131:	20 69 6e             	and    %ch,0x6e(%ecx)
  101134:	69 74 69 61 6c 69 7a 	imul   $0x657a696c,0x61(%ecx,%ebp,2),%esi
  10113b:	65 
  10113c:	64 20 63 6f          	and    %ah,%fs:0x6f(%ebx)
  101140:	72 72                	jb     1011b4 <__EH_FRAME_BEGIN__+0x16c>
  101142:	65 63 74 6c 79       	arpl   %esi,%gs:0x79(%esp,%ebp,2)
  101147:	20 21                	and    %ah,(%ecx)
  101149:	20 0a                	and    %cl,(%edx)
  10114b:	00 49 44             	add    %cl,0x44(%ecx)
  10114e:	54                   	push   %esp
  10114f:	20 69 6e             	and    %ch,0x6e(%ecx)
  101152:	69 74 69 61 6c 69 7a 	imul   $0x657a696c,0x61(%ecx,%ebp,2),%esi
  101159:	65 
  10115a:	64 20 63 6f          	and    %ah,%fs:0x6f(%ebx)
  10115e:	72 72                	jb     1011d2 <__EH_FRAME_BEGIN__+0x18a>
  101160:	65 63 74 6c 79       	arpl   %esi,%gs:0x79(%esp,%ebp,2)
  101165:	20 21                	and    %ah,(%ecx)
  101167:	20 0a                	and    %cl,(%edx)
  101169:	00 50 49             	add    %dl,0x49(%eax)
  10116c:	43                   	inc    %ebx
  10116d:	20 72 65             	and    %dh,0x65(%edx)
  101170:	6d                   	insl   (%dx),%es:(%edi)
  101171:	61                   	popa
  101172:	70 70                	jo     1011e4 <__EH_FRAME_BEGIN__+0x19c>
  101174:	65 64 20 63 6f       	gs and %ah,%fs:0x6f(%ebx)
  101179:	72 72                	jb     1011ed <__EH_FRAME_BEGIN__+0x1a5>
  10117b:	65 63 74 6c 79       	arpl   %esi,%gs:0x79(%esp,%ebp,2)
  101180:	20 21                	and    %ah,(%ecx)
  101182:	20 0a                	and    %cl,(%edx)
  101184:	00 30                	add    %dh,(%eax)
  101186:	31 32                	xor    %esi,(%edx)
  101188:	33 34 35 36 37 38 39 	xor    0x39383736(,%esi,1),%esi
  10118f:	61                   	popa
  101190:	62 63 64             	bound  %esp,0x64(%ebx)
  101193:	65 66 00 30          	data16 add %dh,%gs:(%eax)
  101197:	31 00                	xor    %eax,(%eax)

Disassembly of section .rodata.cst2:

0010119a <.rodata.cst2>:
  10119a:	00 8e 30 78 30 62    	add    %cl,0x62307830(%esi)

Disassembly of section .rodata.str1.4:

001011a0 <.rodata.str1.4>:
  1011a0:	4b                   	dec    %ebx
  1011a1:	65 79 62             	gs jns 101206 <__EH_FRAME_BEGIN__+0x1be>
  1011a4:	6f                   	outsl  %ds:(%esi),(%dx)
  1011a5:	61                   	popa
  1011a6:	72 64                	jb     10120c <__EH_FRAME_BEGIN__+0x1c4>
  1011a8:	20 73 63             	and    %dh,0x63(%ebx)
  1011ab:	61                   	popa
  1011ac:	6e                   	outsb  %ds:(%esi),(%dx)
  1011ad:	63 6f 64             	arpl   %ebp,0x64(%edi)
  1011b0:	65 20 73 65          	and    %dh,%gs:0x65(%ebx)
  1011b4:	74 20                	je     1011d6 <__EH_FRAME_BEGIN__+0x18e>
  1011b6:	69 6e 69 74 69 61 6c 	imul   $0x6c616974,0x69(%esi),%ebp
  1011bd:	69 7a 65 64 20 63 6f 	imul   $0x6f632064,0x65(%edx),%edi
  1011c4:	72 72                	jb     101238 <__EH_FRAME_BEGIN__+0x1f0>
  1011c6:	65 63 74 6c 79       	arpl   %esi,%gs:0x79(%esp,%ebp,2)
  1011cb:	20 21                	and    %ah,(%ecx)
  1011cd:	20 0a                	and    %cl,(%edx)
	...

Disassembly of section .data:

00102000 <__dso_handle>:
	...

00102020 <scancodeTable>:
  102020:	00 1b                	add    %bl,(%ebx)
  102022:	31 32                	xor    %esi,(%edx)
  102024:	33 34 35 36 37 38 39 	xor    0x39383736(,%esi,1),%esi
  10202b:	30 2d 3d 08 09 71    	xor    %ch,0x7109083d
  102031:	77 65                	ja     102098 <__TMC_END__+0xc>
  102033:	72 74                	jb     1020a9 <__TMC_END__+0x1d>
  102035:	79 75                	jns    1020ac <__TMC_END__+0x20>
  102037:	69 6f 70 5b 5d 0a 00 	imul   $0xa5d5b,0x70(%edi),%ebp
  10203e:	61                   	popa
  10203f:	73 64                	jae    1020a5 <__TMC_END__+0x19>
  102041:	66 67 68 6a 6b       	addr16 pushw $0x6b6a
  102046:	6c                   	insb   (%dx),%es:(%edi)
  102047:	3b 27                	cmp    (%edi),%esp
  102049:	60                   	pusha
  10204a:	00 5c 7a 78          	add    %bl,0x78(%edx,%edi,2)
  10204e:	63 76 62             	arpl   %esi,0x62(%esi)
  102051:	6e                   	outsb  %ds:(%esi),(%dx)
  102052:	6d                   	insl   (%dx),%es:(%edi)
  102053:	2c 2e                	sub    $0x2e,%al
  102055:	2f                   	das
  102056:	00 2a                	add    %ch,(%edx)
  102058:	00 20                	add    %ah,(%eax)
	...

Disassembly of section .ctors:

0010207c <__CTOR_LIST__>:
  10207c:	ff                   	(bad)
  10207d:	ff                   	(bad)
  10207e:	ff                   	(bad)
  10207f:	ff                 	incl   (%eax)

00102080 <__CTOR_END__>:
  102080:	00 00                	add    %al,(%eax)
	...

Disassembly of section .dtors:

00102084 <__DTOR_LIST__>:
  102084:	ff                   	(bad)
  102085:	ff                   	(bad)
  102086:	ff                   	(bad)
  102087:	ff                 	incl   (%eax)

00102088 <__DTOR_END__>:
  102088:	00 00                	add    %al,(%eax)
	...

Disassembly of section .debug_line:

00000000 <.debug_line>:
       0:	54                   	push   %esp
       1:	00 00                	add    %al,(%eax)
       3:	00 05 00 04 00 2e    	add    %al,0x2e000400
       9:	00 00                	add    %al,(%eax)
       b:	00 01                	add    %al,(%ecx)
       d:	01 01                	add    %eax,(%ecx)
       f:	fb                   	sti
      10:	0e                   	push   %cs
      11:	0d 00 01 01 01       	or     $0x1010100,%eax
      16:	01 00                	add    %eax,(%eax)
      18:	00 00                	add    %al,(%eax)
      1a:	01 00                	add    %eax,(%eax)
      1c:	00 01                	add    %al,(%ecx)
      1e:	01 01                	add    %eax,(%ecx)
      20:	1f                   	pop    %ds
      21:	02 00                	add    (%eax),%al
      23:	00 00                	add    %al,(%eax)
      25:	00 23                	add    %ah,(%ebx)
      27:	00 00                	add    %al,(%eax)
      29:	00 02                	add    %al,(%edx)
      2b:	01 1f                	add    %ebx,(%edi)
      2d:	02 0f                	add    (%edi),%cl
      2f:	02 2d 00 00 00 01    	add    0x1000000,%ch
      35:	2d 00 00 00 01       	sub    $0x1000000,%eax
      3a:	00 05 02 89 0f 10    	add    %al,0x100f8902
      40:	00 16                	add    %dl,(%esi)
      42:	21 02                	and    %eax,(%edx)
      44:	02 00                	add    (%eax),%al
      46:	01 01                	add    %eax,(%ecx)
      48:	00 05 02 98 0f 10    	add    %al,0x100f9802
      4e:	00 03                	add    %al,(%ebx)
      50:	0d 01 21 02 02       	or     $0x2022101,%eax
      55:	00 01                	add    %al,(%ecx)
      57:	01 49 00             	add    %ecx,0x0(%ecx)
      5a:	00 00                	add    %al,(%eax)
      5c:	05 00 04 00 2e       	add    $0x2e000400,%eax
      61:	00 00                	add    %al,(%eax)
      63:	00 01                	add    %al,(%ecx)
      65:	01 01                	add    %eax,(%ecx)
      67:	fb                   	sti
      68:	0e                   	push   %cs
      69:	0d 00 01 01 01       	or     $0x1010100,%eax
      6e:	01 00                	add    %eax,(%eax)
      70:	00 00                	add    %al,(%eax)
      72:	01 00                	add    %eax,(%eax)
      74:	00 01                	add    %al,(%ecx)
      76:	01 01                	add    %eax,(%ecx)
      78:	1f                   	pop    %ds
      79:	02 00                	add    (%eax),%al
      7b:	00 00                	add    %al,(%eax)
      7d:	00 23                	add    %ah,(%ebx)
      7f:	00 00                	add    %al,(%eax)
      81:	00 02                	add    %al,(%edx)
      83:	01 1f                	add    %ebx,(%edi)
      85:	02 0f                	add    (%edi),%cl
      87:	02 34 00             	add    (%eax,%eax,1),%dh
      8a:	00 00                	add    %al,(%eax)
      8c:	01 34 00             	add    %esi,(%eax,%eax,1)
      8f:	00 00                	add    %al,(%eax)
      91:	01 00                	add    %eax,(%eax)
      93:	05 02 65 01 10       	add    $0x10016502,%eax
      98:	00 03                	add    %al,(%ebx)
      9a:	20 01                	and    %al,(%ecx)
      9c:	5b                   	pop    %ebx
      9d:	5b                   	pop    %ebx
      9e:	21 21                	and    %esp,(%ecx)
      a0:	02 02                	add    (%edx),%al
      a2:	00 01                	add    %al,(%ecx)
      a4:	01 43 03             	add    %eax,0x3(%ebx)
      a7:	00 00                	add    %al,(%eax)
      a9:	05 00 04 00 4a       	add    $0x4a000400,%eax
      ae:	00 00                	add    %al,(%eax)
      b0:	00 01                	add    %al,(%ecx)
      b2:	01 01                	add    %eax,(%ecx)
      b4:	fb                   	sti
      b5:	0e                   	push   %cs
      b6:	0d 00 01 01 01       	or     $0x1010100,%eax
      bb:	01 00                	add    %eax,(%eax)
      bd:	00 00                	add    %al,(%eax)
      bf:	01 00                	add    %eax,(%eax)
      c1:	00 01                	add    %al,(%ecx)
      c3:	01 01                	add    %eax,(%ecx)
      c5:	1f                   	pop    %ds
      c6:	04 00                	add    $0x0,%al
      c8:	00 00                	add    %al,(%eax)
      ca:	00 23                	add    %ah,(%ebx)
      cc:	00 00                	add    %al,(%eax)
      ce:	00 4b 00             	add    %cl,0x0(%ebx)
      d1:	00 00                	add    %al,(%eax)
      d3:	82 00 00             	addb   $0x0,(%eax)
      d6:	00 02                	add    %al,(%edx)
      d8:	01 1f                	add    %ebx,(%edi)
      da:	02 0f                	add    (%edi),%cl
      dc:	06                   	push   %es
      dd:	45                   	inc    %ebp
      de:	00 00                	add    %al,(%eax)
      e0:	00 01                	add    %al,(%ecx)
      e2:	45                   	inc    %ebp
      e3:	00 00                	add    %al,(%eax)
      e5:	00 01                	add    %al,(%ecx)
      e7:	b2 00                	mov    $0x0,%dl
      e9:	00 00                	add    %al,(%eax)
      eb:	01 b8 00 00 00 02    	add    %edi,0x2000000(%eax)
      f1:	c1 00 00             	roll   $0x0,(%eax)
      f4:	00 02                	add    %al,(%edx)
      f6:	ce                   	into
      f7:	00 00                	add    %al,(%eax)
      f9:	00 03                	add    %al,(%ebx)
      fb:	05 20 00 05 02       	add    $0x2050020,%eax
     100:	80 01 10             	addb   $0x10,(%ecx)
     103:	00 03                	add    %al,(%ebx)
     105:	16                   	push   %ss
     106:	01 05 02 13 05 0f    	add    %eax,0xf051302
     10c:	06                   	push   %es
     10d:	01 05 02 06 9f 05    	add    %eax,0x59f0602
     113:	12 06                	adc    (%esi),%al
     115:	14 56                	adc    $0x56,%al
     117:	05 02 06 9f 05       	add    $0x59f0602,%eax
     11c:	11 00                	adc    %eax,(%eax)
     11e:	02 04 01             	add    (%ecx,%eax,1),%al
     121:	06                   	push   %es
     122:	01 05 02 06 75 05    	add    %eax,0x5750602
     128:	12 06                	adc    (%esi),%al
     12a:	01 05 02 06 9f 05    	add    %eax,0x59f0602
     130:	07                   	pop    %es
     131:	01 05 17 00 02 04    	add    %eax,0x4020017
     137:	01 01                	add    %eax,(%ecx)
     139:	05 18 00 02 04       	add    $0x4020018,%eax
     13e:	01 67 05             	add    %esp,0x5(%edi)
     141:	04 f3                	add    $0xf3,%al
     143:	13 05 1b 00 02 04    	adc    0x402001b,%eax
     149:	01 06                	add    %eax,(%esi)
     14b:	01 05 18 00 02 04    	add    %eax,0x4020018
     151:	01 56 05             	add    %edx,0x5(%esi)
     154:	1b 00                	sbb    (%eax),%eax
     156:	02 04 01             	add    (%ecx,%eax,1),%al
     159:	3e 05 26 00 02 04    	ds add $0x4020026,%eax
     15f:	03 06                	add    (%esi),%eax
     161:	48                   	dec    %eax
     162:	05 18 00 02 04       	add    $0x4020018,%eax
     167:	01 01                	add    %eax,(%ecx)
     169:	05 04 13 13 05       	add    $0x5131304,%eax
     16e:	1b 00                	sbb    (%eax),%eax
     170:	02 04 01             	add    (%ecx,%eax,1),%al
     173:	06                   	push   %es
     174:	01 05 26 00 02 04    	add    %eax,0x4020026
     17a:	03 06                	add    (%esi),%eax
     17c:	8e 05 18 00 02 04    	mov    0x4020018,%es
     182:	01 01                	add    %eax,(%ecx)
     184:	05 26 00 02 04       	add    $0x4020026,%eax
     189:	02 49 05             	add    0x5(%ecx),%cl
     18c:	17                   	pop    %ss
     18d:	00 02                	add    %al,(%edx)
     18f:	04 01                	add    $0x1,%al
     191:	01 05 01 06 ce 05    	add    %eax,0x5ce0601
     197:	27                   	daa
     198:	06                   	push   %es
     199:	a0 05 02 13 05       	mov    0x5130205,%al
     19e:	27                   	daa
     19f:	06                   	push   %es
     1a0:	11 05 11 3d 05 01    	adc    %eax,0x1053d11
     1a6:	3d 05 11 1f 05       	cmp    $0x51f1105,%eax
     1ab:	01 59 05             	add    %ebx,0x5(%ecx)
     1ae:	4e                   	dec    %esi
     1af:	06                   	push   %es
     1b0:	4c                   	dec    %esp
     1b1:	05 02 13 05 4e       	add    $0x4e051302,%eax
     1b6:	06                   	push   %es
     1b7:	11 04 02             	adc    %eax,(%edx,%eax,1)
     1ba:	05 17 03 76 3c       	add    $0x3c760317,%eax
     1bf:	04 01                	add    $0x1,%al
     1c1:	05 4e 03 0a 82       	add    $0x820a034e,%eax
     1c6:	05 02 06 3e 04       	add    $0x43e0602,%eax
     1cb:	02 05 18 03 73 01    	add    0x1730318,%al
     1d1:	05 02 13 05 17       	add    $0x17051302,%eax
     1d6:	06                   	push   %es
     1d7:	01 04 01             	add    %eax,(%ecx,%eax,1)
     1da:	05 11 03 0c 58       	add    $0x580c0311,%eax
     1df:	04 02                	add    $0x2,%al
     1e1:	05 17 03 74 3c       	add    $0x3c740317,%eax
     1e6:	04 01                	add    $0x1,%al
     1e8:	05 11 03 0c 66       	add    $0x660c0311,%eax
     1ed:	04 02                	add    $0x2,%al
     1ef:	05 17 03 74 66       	add    $0x66740317,%eax
     1f4:	04 01                	add    $0x1,%al
     1f6:	05 01 03 0d 4a       	add    $0x4a0d0301,%eax
     1fb:	05 1f 06 a0 05       	add    $0x5a0061f,%eax
     200:	02 14 05 1f 06 10 05 	add    0x510061f(,%eax,1),%dl
     207:	12 22                	adc    (%edx),%ah
     209:	05 1f 56 05 04       	add    $0x405561f,%eax
     20e:	84 05 02 94 05 19    	test   %al,0x19059402
     214:	03 76 66             	add    0x66(%esi),%esi
     217:	05 11 3d 05 19       	add    $0x19053d11,%eax
     21c:	65 05 0f 3c 05 11    	gs add $0x11053c0f,%eax
     222:	2f                   	das
     223:	04 02                	add    $0x2,%al
     225:	05 17 03 74 3c       	add    $0x3c740317,%eax
     22a:	04 01                	add    $0x1,%al
     22c:	05 02 06 03 14       	add    $0x14030602,%eax
     231:	9e                   	sahf
     232:	13 05 06 03 75 01    	adc    0x1750306,%eax
     238:	05 02 13 13 04       	add    $0x4131302,%eax
     23d:	02 05 18 03 73 01    	add    0x1730318,%al
     243:	05 02 13 05 17       	add    $0x17051302,%eax
     248:	06                   	push   %es
     249:	01 82 04 01 05 02    	add    %eax,0x2050104(%edx)
     24f:	06                   	push   %es
     250:	03 16                	add    (%esi),%edx
     252:	01 05 04 06 01 05    	add    %eax,0x5010604
     258:	02 06                	add    (%esi),%al
     25a:	5d                   	pop    %ebp
     25b:	05 06 06 01 05       	add    $0x5010606,%eax
     260:	05 3c 05 03 06       	add    $0x603053c,%eax
     265:	59                   	pop    %ecx
     266:	05 07 06 14 05       	add    $0x5140607,%eax
     26b:	06                   	push   %es
     26c:	3c 05                	cmp    $0x5,%al
     26e:	01 3f                	add    %edi,(%edi)
     270:	05 06 2b 05 01       	add    $0x1052b06,%eax
     275:	5b                   	pop    %ebx
     276:	05 13 29 05 03       	add    $0x3052913,%eax
     27b:	06                   	push   %es
     27c:	9f                   	lahf
     27d:	13 05 06 06 01 05    	adc    0x5010606,%eax
     283:	01 85 05 05 03 7a    	add    %eax,0x7a030505(%ebp)
     289:	3c 05                	cmp    $0x5,%al
     28b:	01 6c 05 03          	add    %ebp,0x3(%ebp,%eax,1)
     28f:	06                   	push   %es
     290:	03 76 3c             	add    0x3c(%esi),%esi
     293:	05 05 06 16 05       	add    $0x5160605,%eax
     298:	0f 9a 05 01 03 0a 3c 	setp   0x3c0a0301
     29f:	05 30 03 78 20       	add    $0x20780330,%eax
     2a4:	05 01 44 05 0f       	add    $0xf054401,%eax
     2a9:	03 76 2e             	add    0x2e(%esi),%esi
     2ac:	05 03 06 67 13       	add    $0x13670603,%eax
     2b1:	04 02                	add    $0x2,%al
     2b3:	05 17 03 62 01       	add    $0x1620317,%eax
     2b8:	05 02 13 05 0c       	add    $0xc051302,%eax
     2bd:	06                   	push   %es
     2be:	01 04 01             	add    %eax,(%ecx,%eax,1)
     2c1:	05 02 06 03 1f       	add    $0x1f030602,%eax
     2c6:	58                   	pop    %eax
     2c7:	05 01 06 18 05       	add    $0x5180601,%eax
     2cc:	03 06                	add    (%esi),%eax
     2ce:	03 71 2e             	add    0x2e(%ecx),%esi
     2d1:	05 06 03 67 01       	add    $0x1670306,%eax
     2d6:	05 02 13 05 0f       	add    $0xf051302,%eax
     2db:	06                   	push   %es
     2dc:	01 05 02 06 9f 13    	add    %eax,0x139f0602
     2e2:	05 12 06 13 05       	add    $0x5130612,%eax
     2e7:	11 00                	adc    %eax,(%eax)
     2e9:	02 04 01             	add    (%ecx,%eax,1),%al
     2ec:	57                   	push   %edi
     2ed:	05 02 06 75 05       	add    $0x5750602,%eax
     2f2:	12 06                	adc    (%esi),%al
     2f4:	01 05 02 06 9f 05    	add    %eax,0x59f0602
     2fa:	07                   	pop    %es
     2fb:	01 05 17 00 02 04    	add    %eax,0x4020017
     301:	01 01                	add    %eax,(%ecx)
     303:	05 18 00 02 04       	add    $0x4020018,%eax
     308:	01 67 05             	add    %esp,0x5(%edi)
     30b:	04 67                	add    $0x67,%al
     30d:	13 05 1b 00 02 04    	adc    0x402001b,%eax
     313:	01 06                	add    %eax,(%esi)
     315:	01 05 18 00 02 04    	add    %eax,0x4020018
     31b:	01 9c 05 1b 00 02 04 	add    %ebx,0x402001b(%ebp,%eax,1)
     322:	01 3e                	add    %edi,(%esi)
     324:	05 26 00 02 04       	add    $0x4020026,%eax
     329:	03 06                	add    (%esi),%eax
     32b:	48                   	dec    %eax
     32c:	05 18 00 02 04       	add    $0x4020018,%eax
     331:	01 01                	add    %eax,(%ecx)
     333:	05 04 13 13 05       	add    $0x5131304,%eax
     338:	1b 00                	sbb    (%eax),%eax
     33a:	02 04 01             	add    (%ecx,%eax,1),%al
     33d:	06                   	push   %es
     33e:	01 05 26 00 02 04    	add    %eax,0x4020026
     344:	03 06                	add    (%esi),%eax
     346:	48                   	dec    %eax
     347:	05 18 00 02 04       	add    $0x4020018,%eax
     34c:	01 01                	add    %eax,(%ecx)
     34e:	05 26 00 02 04       	add    $0x4020026,%eax
     353:	02 49 05             	add    0x5(%ecx),%cl
     356:	17                   	pop    %ss
     357:	00 02                	add    %al,(%edx)
     359:	04 01                	add    $0x1,%al
     35b:	01 05 34 03 25 08    	add    %eax,0x8250334
     361:	f2 06                	repnz push %es
     363:	01 05 02 06 3d 05    	add    %eax,0x53d0602
     369:	07                   	pop    %es
     36a:	01 05 17 00 02 04    	add    %eax,0x4020017
     370:	01 01                	add    %eax,(%ecx)
     372:	05 34 06 11 2e       	add    $0x2e110634,%eax
     377:	05 17 00 02 04       	add    $0x4020017,%eax
     37c:	01 3d 05 03 06 f3    	add    %edi,0xf3060305
     382:	05 17 00 02 04       	add    $0x4020017,%eax
     387:	01 06                	add    %eax,(%esi)
     389:	65 05 03 3d 05 20    	gs add $0x20053d03,%eax
     38f:	00 02                	add    %al,(%edx)
     391:	04 03                	add    $0x3,%al
     393:	06                   	push   %es
     394:	65 05 17 00 02 04    	gs add $0x4020017,%eax
     39a:	01 01                	add    %eax,(%ecx)
     39c:	05 01 06 76 66       	add    $0x66760601,%eax
     3a1:	05 2d 06 bc 06       	add    $0x6bc062d,%eax
     3a6:	01 05 02 06 3d 05    	add    %eax,0x53d0602
     3ac:	2d 06 11 2e 05       	sub    $0x52e1106,%eax
     3b1:	02 3d 05 06 06 03    	add    0x3060605,%bh
     3b7:	7a 90                	jp     349 <mb2_hdr_begin-0xffcb7>
     3b9:	05 02 13 05 07       	add    $0x7051302,%eax
     3be:	01 05 17 00 02 04    	add    %eax,0x4020017
     3c4:	01 01                	add    %eax,(%ecx)
     3c6:	05 03 e5 05 17       	add    $0x1705e503,%eax
     3cb:	00 02                	add    %al,(%edx)
     3cd:	04 01                	add    $0x1,%al
     3cf:	06                   	push   %es
     3d0:	65 05 03 3d 05 20    	gs add $0x20053d03,%eax
     3d6:	00 02                	add    %al,(%edx)
     3d8:	04 03                	add    $0x3,%al
     3da:	06                   	push   %es
     3db:	65 05 17 00 02 04    	gs add $0x4020017,%eax
     3e1:	01 01                	add    %eax,(%ecx)
     3e3:	05 01 06 7a 02       	add    $0x27a0601,%eax
     3e8:	07                   	pop    %es
     3e9:	00 01                	add    %al,(%ecx)
     3eb:	01 1f                	add    %ebx,(%edi)
     3ed:	01 00                	add    %eax,(%eax)
     3ef:	00 05 00 04 00 49    	add    %al,0x49000400
     3f5:	00 00                	add    %al,(%eax)
     3f7:	00 01                	add    %al,(%ecx)
     3f9:	01 01                	add    %eax,(%ecx)
     3fb:	fb                   	sti
     3fc:	0e                   	push   %cs
     3fd:	0d 00 01 01 01       	or     $0x1010100,%eax
     402:	01 00                	add    %eax,(%eax)
     404:	00 00                	add    %al,(%eax)
     406:	01 00                	add    %eax,(%eax)
     408:	00 01                	add    %al,(%ecx)
     40a:	01 01                	add    %eax,(%ecx)
     40c:	1f                   	pop    %ds
     40d:	05 00 00 00 00       	add    $0x0,%eax
     412:	eb 00                	jmp    414 <mb2_hdr_begin-0xffbec>
     414:	00 00                	add    %al,(%eax)
     416:	4b                   	dec    %ebx
     417:	00 00                	add    %al,(%eax)
     419:	00 a2 02 00 00 82    	add    %ah,-0x7dfffffe(%edx)
     41f:	00 00                	add    %al,(%eax)
     421:	00 02                	add    %al,(%edx)
     423:	01 1f                	add    %ebx,(%edi)
     425:	02 0f                	add    (%edi),%cl
     427:	05 e5 00 00 00       	add    $0xe5,%eax
     42c:	01 e5                	add    %esp,%ebp
     42e:	00 00                	add    %al,(%eax)
     430:	00 01                	add    %al,(%ecx)
     432:	c1 00 00             	roll   $0x0,(%eax)
     435:	00 02                	add    %al,(%edx)
     437:	f9                   	stc
     438:	00 00                	add    %al,(%eax)
     43a:	00 03                	add    %al,(%ebx)
     43c:	ff 00                	incl   (%eax)
     43e:	00 00                	add    %al,(%eax)
     440:	04 05                	add    $0x5,%al
     442:	01 00                	add    %eax,(%eax)
     444:	05 02 d0 03 10       	add    $0x1003d002,%eax
     449:	00 03                	add    %al,(%ebx)
     44b:	10 01                	adc    %al,(%ecx)
     44d:	06                   	push   %es
     44e:	01 3c 3c             	add    %edi,(%esp,%edi,1)
     451:	3c 05                	cmp    $0x5,%al
     453:	05 06 4c 1a 13       	add    $0x131a4c06,%eax
     458:	05 0f 06 03 0a       	add    $0xa03060f,%eax
     45d:	01 05 19 3f 05 0f    	add    %eax,0xf053f19
     463:	3c 03                	cmp    $0x3,%al
     465:	72 3c                	jb     4a3 <mb2_hdr_begin-0xffb5d>
     467:	05 05 06 5a 15       	add    $0x155a0605,%eax
     46c:	13 05 0f 06 1a 03    	adc    0x31a060f,%eax
     472:	77 3c                	ja     4b0 <mb2_hdr_begin-0xffb50>
     474:	05 05 06 4c 05       	add    $0x54c0605,%eax
     479:	0f 06                	clts
     47b:	01 05 05 06 4b 05    	add    %eax,0x54b0605
     481:	0f 06                	clts
     483:	01 05 05 06 4d 15    	add    %eax,0x154d0605
     489:	05 0f 06 01 05       	add    $0x501060f,%eax
     48e:	01 3d 06 3f 05 05    	add    %edi,0x5053f06
     494:	13 05 01 06 75 06    	adc    0x6750601,%eax
     49a:	94                   	xchg   %eax,%esp
     49b:	05 05 14 18 05       	add    $0x5181405,%eax
     4a0:	06                   	push   %es
     4a1:	03 55 01             	add    0x1(%ebp),%edx
     4a4:	05 05 15 1a 13       	add    $0x131a1505,%eax
     4a9:	13 15 13 13 13 15    	adc    0x15131313,%edx
     4af:	15 06 01 06 03       	adc    $0x3060106,%eax
     4b4:	14 01                	adc    $0x1,%al
     4b6:	19 14 18             	sbb    %edx,(%eax,%ebx,1)
     4b9:	05 01 06 03 67       	add    $0x67030601,%eax
     4be:	01 05 0f 03 2c 20    	add    %eax,0x202c030f
     4c4:	05 10 5a 05 01       	add    $0x1055a10,%eax
     4c9:	03 52 58             	add    0x58(%edx),%edx
     4cc:	05 10 03 2e 58       	add    $0x582e0310,%eax
     4d1:	05 05 76 05 0f       	add    $0xf057605,%eax
     4d6:	03 b8 7f 66 02 3c    	add    0x3c02667f(%eax),%edi
     4dc:	12 05 05 06 03 c4    	adc    0xc4030605,%al
     4e2:	00 01                	add    %al,(%ecx)
     4e4:	05 0f 06 01 05       	add    $0x501060f,%eax
     4e9:	05 06 e6 14 59       	add    $0x5914e606,%eax
     4ee:	05 2b 06 2e 05       	add    $0x52e062b,%eax
     4f3:	05 74 06 ae 15       	add    $0x15ae0674,%eax
     4f8:	05 06 03 43 01       	add    $0x1430306,%eax
     4fd:	05 05 14 03 3c       	add    $0x3c031405,%eax
     502:	74 05                	je     509 <mb2_hdr_begin-0xffaf7>
     504:	01 06                	add    %eax,(%esi)
     506:	3d 05 05 1f 02       	cmp    $0x21f0505,%eax
     50b:	05 00 01 01 4c       	add    $0x4c010100,%eax
     510:	02 00                	add    (%eax),%al
     512:	00 05 00 04 00 49    	add    %al,0x49000400
     518:	00 00                	add    %al,(%eax)
     51a:	00 01                	add    %al,(%ecx)
     51c:	01 01                	add    %eax,(%ecx)
     51e:	fb                   	sti
     51f:	0e                   	push   %cs
     520:	0d 00 01 01 01       	or     $0x1010100,%eax
     525:	01 00                	add    %eax,(%eax)
     527:	00 00                	add    %al,(%eax)
     529:	01 00                	add    %eax,(%eax)
     52b:	00 01                	add    %al,(%ecx)
     52d:	01 01                	add    %eax,(%ecx)
     52f:	1f                   	pop    %ds
     530:	05 00 00 00 00       	add    $0x0,%eax
     535:	25 01 00 00 4b       	and    $0x4b000001,%eax
     53a:	00 00                	add    %al,(%eax)
     53c:	00 a2 02 00 00 82    	add    %ah,-0x7dfffffe(%edx)
     542:	00 00                	add    %al,(%eax)
     544:	00 02                	add    %al,(%edx)
     546:	01 1f                	add    %ebx,(%edi)
     548:	02 0f                	add    (%edi),%cl
     54a:	05 1f 01 00 00       	add    $0x11f,%eax
     54f:	01 1f                	add    %ebx,(%edi)
     551:	01 00                	add    %eax,(%eax)
     553:	00 01                	add    %al,(%ecx)
     555:	c1 00 00             	roll   $0x0,(%eax)
     558:	00 02                	add    %al,(%edx)
     55a:	3d 01 00 00 03       	cmp    $0x3000001,%eax
     55f:	ff 00                	incl   (%eax)
     561:	00 00                	add    %al,(%eax)
     563:	04 05                	add    $0x5,%al
     565:	01 00                	add    %eax,(%eax)
     567:	05 02 b0 04 10       	add    $0x1004b002,%eax
     56c:	00 03                	add    %al,(%ebx)
     56e:	0a 01                	or     (%ecx),%al
     570:	05 05 13 05 01       	add    $0x1051305,%eax
     575:	06                   	push   %es
     576:	11 90 05 08 bb 05    	adc    %edx,0x5bb0805(%eax)
     57c:	05 06 5c 05 08       	add    $0x8055c06,%eax
     581:	06                   	push   %es
     582:	01 05 05 06 5d 05    	add    %eax,0x55d0605
     588:	1a 06                	sbb    (%esi),%al
     58a:	01 05 05 06 83 05    	add    %eax,0x5830605
     590:	21 06                	and    %eax,(%esi)
     592:	14 05                	adc    $0x5,%al
     594:	22 2f                	and    (%edi),%ch
     596:	05 1a 39 05 05       	add    $0x505391a,%eax
     59b:	06                   	push   %es
     59c:	83 05 16 06 01 05 05 	addl   $0x5,0x5010616
     5a3:	06                   	push   %es
     5a4:	83 05 21 06 01 05 05 	addl   $0x5,0x5010621
     5ab:	06                   	push   %es
     5ac:	75 05                	jne    5b3 <mb2_hdr_begin-0xffa4d>
     5ae:	1a 06                	sbb    (%esi),%al
     5b0:	01 05 01 83 74 05    	add    %eax,0x5748301
     5b6:	09 03                	or     %eax,(%ebx)
     5b8:	74 66                	je     620 <mb2_hdr_begin-0xff9e0>
     5ba:	06                   	push   %es
     5bb:	66 05 05 ae          	add    $0xae05,%ax
     5bf:	05 09 06 3a be       	add    $0xbe3a0609,%eax
     5c4:	06                   	push   %es
     5c5:	66 05 01 03          	add    $0x301,%ax
     5c9:	10 02                	adc    %al,(%edx)
     5cb:	22 01                	and    (%ecx),%al
     5cd:	05 05 13 05 01       	add    $0x1051305,%eax
     5d2:	06                   	push   %es
     5d3:	75 06                	jne    5db <mb2_hdr_begin-0xffa25>
     5d5:	94                   	xchg   %eax,%esp
     5d6:	05 05 15 05 0a       	add    $0xa051505,%eax
     5db:	01 05 21 00 02 04    	add    %eax,0x4020021
     5e1:	01 01                	add    %eax,(%ecx)
     5e3:	05 01 06 0f 05       	add    $0x50f0601,%eax
     5e8:	0e                   	push   %cs
     5e9:	23 05 01 2b 05 0d    	and    0xd052b01,%eax
     5ef:	03 0f                	add    (%edi),%ecx
     5f1:	9e                   	sahf
     5f2:	05 22 03 62 58       	add    $0x58620322,%eax
     5f7:	05 01 03 0f 58       	add    $0x580f0301,%eax
     5fc:	05 09 06 96 05       	add    $0x5960609,%eax
     601:	0d 93 05 06 03       	or     $0x3060593,%eax
     606:	59                   	pop    %ecx
     607:	01 05 05 14 16 17    	add    %eax,0x17161405
     60d:	05 22 06 16 05       	add    $0x5160622,%eax
     612:	1a 2a                	sbb    (%edx),%ch
     614:	05 05 06 75 13       	add    $0x13750605,%eax
     619:	13 05 1a 06 10 05    	adc    0x510061a,%eax
     61f:	05 06 a1 05 22       	add    $0x2205a106,%eax
     624:	06                   	push   %es
     625:	01 05 1a 3c 66 05    	add    %eax,0x5663c1a
     62b:	0d 06 03 19 01       	or     $0x1190306,%eax
     630:	05 3e 00 02 04       	add    $0x402003e,%eax
     635:	02 03                	add    (%ebx),%al
     637:	79 01                	jns    63a <mb2_hdr_begin-0xff9c6>
     639:	05 21 00 02 04       	add    $0x4020021,%eax
     63e:	01 01                	add    %eax,(%ecx)
     640:	05 09 15 05 0d       	add    $0xd051509,%eax
     645:	03 09                	add    (%ecx),%ecx
     647:	01 05 06 03 53 01    	add    %eax,0x1530306
     64d:	05 05 14 16 05       	add    $0x5161405,%eax
     652:	09 14 05 05 08 23 05 	or     %edx,0x5230805(,%eax,1)
     659:	1a 06                	sbb    (%esi),%al
     65b:	01 05 05 06 75 13    	add    %eax,0x13750605
     661:	13 05 1a 06 10 05    	adc    0x510061a,%eax
     667:	05 06 a1 05 1a       	add    $0x1a05a106,%eax
     66c:	06                   	push   %es
     66d:	01 74 05 0d          	add    %esi,0xd(%ebp,%eax,1)
     671:	06                   	push   %es
     672:	03 1f                	add    (%edi),%ebx
     674:	01 08                	add    %ecx,(%eax)
     676:	13 05 3e 00 02 04    	adc    0x402003e,%eax
     67c:	02 03                	add    (%ebx),%al
     67e:	72 01                	jb     681 <mb2_hdr_begin-0xff97f>
     680:	05 21 00 02 04       	add    $0x4020021,%eax
     685:	01 01                	add    %eax,(%ecx)
     687:	05 0d 06 03 0d       	add    $0xd03060d,%eax
     68c:	01 05 3e 00 02 04    	add    %eax,0x402003e
     692:	02 03                	add    (%ebx),%al
     694:	73 3c                	jae    6d2 <mb2_hdr_begin-0xff92e>
     696:	05 05 06 03 6a       	add    $0x6a030605,%eax
     69b:	58                   	pop    %eax
     69c:	05 1a 06 13 05       	add    $0x513061a,%eax
     6a1:	22 5b 05             	and    0x5(%ebx),%bl
     6a4:	1a 2a                	sbb    (%edx),%ch
     6a6:	05 05 06 83 05       	add    $0x5830605,%eax
     6ab:	1a 06                	sbb    (%esi),%al
     6ad:	01 05 05 06 83 13    	add    %eax,0x13830605
     6b3:	05 16 06 11 05       	add    $0x5110616,%eax
     6b8:	22 76 05             	and    0x5(%esi),%dh
     6bb:	1a 3c 05 16 80 05 05 	sbb    0x5058016(,%eax,1),%bh
     6c2:	06                   	push   %es
     6c3:	84 05 0d 03 25 01    	test   %al,0x125030d
     6c9:	05 3e 00 02 04       	add    $0x402003e,%eax
     6ce:	02 03                	add    (%ebx),%al
     6d0:	6d                   	insl   (%dx),%es:(%edi)
     6d1:	01 05 21 00 02 04    	add    %eax,0x4020021
     6d7:	01 3c 05 05 03 17 ac 	add    %edi,-0x53e8fcfb(,%eax,1)
     6de:	05 0f 06 01 05       	add    $0x501060f,%eax
     6e3:	05 06 9f 05 10       	add    $0x10059f06,%eax
     6e8:	06                   	push   %es
     6e9:	01 58 05             	add    %ebx,0x5(%eax)
     6ec:	05 06 68 05 06       	add    $0x6056806,%eax
     6f1:	03 5c 01 05          	add    0x5(%ecx,%eax,1),%ebx
     6f5:	05 14 03 24 74       	add    $0x74240314,%eax
     6fa:	05 01 06 21 05       	add    $0x5210601,%eax
     6ff:	09 03                	or     %eax,(%ebx)
     701:	66 ba 05 0d          	mov    $0xd05,%dx
     705:	06                   	push   %es
     706:	03 0f                	add    (%edi),%ecx
     708:	90                   	nop
     709:	05 06 03 4d 01       	add    $0x14d0306,%eax
     70e:	05 05 14 05 08       	add    $0x8051405,%eax
     713:	06                   	push   %es
     714:	01 05 09 06 5a 05    	add    %eax,0x55a0609
     71a:	05 08 22 17 05       	add    $0x5172208,%eax
     71f:	22 06                	and    (%esi),%al
     721:	16                   	push   %ss
     722:	05 1a 2a 05 05       	add    $0x5052a1a,%eax
     727:	06                   	push   %es
     728:	75 13                	jne    73d <mb2_hdr_begin-0xff8c3>
     72a:	13 05 1a 06 13 39    	adc    0x3913061a,%eax
     730:	05 05 06 a1 05       	add    $0x5a10605,%eax
     735:	22 06                	and    (%esi),%al
     737:	01 05 1a 3c 66 05    	add    %eax,0x5663c1a
     73d:	0d 06 03 25 01       	or     $0x1250306,%eax
     742:	05 3e 00 02 04       	add    $0x402003e,%eax
     747:	02 03                	add    (%ebx),%al
     749:	6d                   	insl   (%dx),%es:(%edi)
     74a:	01 05 21 00 02 04    	add    %eax,0x4020021
     750:	01 01                	add    %eax,(%ecx)
     752:	05 3e 00 02 04       	add    $0x402003e,%eax
     757:	02 06                	add    (%esi),%al
     759:	01 02                	add    %eax,(%edx)
     75b:	0a 00                	or     (%eax),%al
     75d:	01 01                	add    %eax,(%ecx)
     75f:	78 00                	js     761 <mb2_hdr_begin-0xff89f>
     761:	00 00                	add    %al,(%eax)
     763:	05 00 04 00 40       	add    $0x40000400,%eax
     768:	00 00                	add    %al,(%eax)
     76a:	00 01                	add    %al,(%ecx)
     76c:	01 01                	add    %eax,(%ecx)
     76e:	fb                   	sti
     76f:	0e                   	push   %cs
     770:	0d 00 01 01 01       	or     $0x1010100,%eax
     775:	01 00                	add    %eax,(%eax)
     777:	00 00                	add    %al,(%eax)
     779:	01 00                	add    %eax,(%eax)
     77b:	00 01                	add    %al,(%ecx)
     77d:	01 01                	add    %eax,(%ecx)
     77f:	1f                   	pop    %ds
     780:	04 00                	add    $0x0,%al
     782:	00 00                	add    %al,(%eax)
     784:	00 25 01 00 00 82    	add    %ah,0x82000001
     78a:	00 00                	add    %al,(%eax)
     78c:	00 4b 00             	add    %cl,0x0(%ebx)
     78f:	00 00                	add    %al,(%eax)
     791:	02 01                	add    (%ecx),%al
     793:	1f                   	pop    %ds
     794:	02 0f                	add    (%edi),%cl
     796:	04 5b                	add    $0x5b,%al
     798:	01 00                	add    %eax,(%eax)
     79a:	00 01                	add    %al,(%ecx)
     79c:	5b                   	pop    %ebx
     79d:	01 00                	add    %eax,(%eax)
     79f:	00 01                	add    %al,(%ecx)
     7a1:	ff 00                	incl   (%eax)
     7a3:	00 00                	add    %al,(%eax)
     7a5:	02 c1                	add    %cl,%al
     7a7:	00 00                	add    %al,(%eax)
     7a9:	00 03                	add    %al,(%ebx)
     7ab:	05 15 00 05 02       	add    $0x2050015,%eax
     7b0:	a0 06 10 00 18       	mov    0x18001006,%al
     7b5:	05 05 13 05 10       	add    $0x10051305,%eax
     7ba:	06                   	push   %es
     7bb:	01 05 05 06 c9 05    	add    %eax,0x5c90605
     7c1:	15 06 01 05 08       	adc    $0x8050106,%eax
     7c6:	d6                   	(bad)
     7c7:	05 09 06 c9 05       	add    $0x5c90609,%eax
     7cc:	15 06 0f 05 09       	adc    $0x9050f06,%eax
     7d1:	69 05 01 08 30 02 02 	imul   $0x1010002,0x2300801,%eax
     7d8:	00 01 01 
     7db:	93                   	xchg   %eax,%ebx
     7dc:	01 00                	add    %eax,(%eax)
     7de:	00 05 00 04 00 49    	add    %al,0x49000400
     7e4:	00 00                	add    %al,(%eax)
     7e6:	00 01                	add    %al,(%ecx)
     7e8:	01 01                	add    %eax,(%ecx)
     7ea:	fb                   	sti
     7eb:	0e                   	push   %cs
     7ec:	0d 00 01 01 01       	or     $0x1010100,%eax
     7f1:	01 00                	add    %eax,(%eax)
     7f3:	00 00                	add    %al,(%eax)
     7f5:	01 00                	add    %eax,(%eax)
     7f7:	00 01                	add    %al,(%ecx)
     7f9:	01 01                	add    %eax,(%ecx)
     7fb:	1f                   	pop    %ds
     7fc:	05 00 00 00 00       	add    $0x0,%eax
     801:	25 01 00 00 4b       	and    $0x4b000001,%eax
     806:	00 00                	add    %al,(%eax)
     808:	00 82 00 00 00 a2    	add    %al,-0x5e000000(%edx)
     80e:	02 00                	add    (%eax),%al
     810:	00 02                	add    %al,(%edx)
     812:	01 1f                	add    %ebx,(%edi)
     814:	02 0f                	add    (%edi),%cl
     816:	05 7b 01 00 00       	add    $0x17b,%eax
     81b:	01 7b 01             	add    %edi,0x1(%ebx)
     81e:	00 00                	add    %al,(%eax)
     820:	01 c1                	add    %eax,%ecx
     822:	00 00                	add    %al,(%eax)
     824:	00 02                	add    %al,(%edx)
     826:	ff 00                	incl   (%eax)
     828:	00 00                	add    %al,(%eax)
     82a:	03 02                	add    (%edx),%eax
     82c:	01 00                	add    %eax,(%eax)
     82e:	00 04 05 01 00 05 02 	add    %al,0x2050001(,%eax,1)
     835:	f0 06                	lock push %es
     837:	10 00                	adc    %al,(%eax)
     839:	03 ea                	add    %edx,%ebp
     83b:	00 01                	add    %al,(%ecx)
     83d:	05 05 13 05 01       	add    $0x1051305,%eax
     842:	06                   	push   %es
     843:	11 66 05             	adc    %esp,0x5(%esi)
     846:	05 3d 05 09 a3       	add    $0xa309053d,%eax
     84b:	2e 05 01 03 09 01    	cs add $0x1090301,%eax
     851:	05 09 06 03 7a       	add    $0x7a030609,%eax
     856:	ac                   	lods   %ds:(%esi),%al
     857:	06                   	push   %es
     858:	13 05 1a 3b 05 09    	adc    0x9053b1a,%eax
     85e:	06                   	push   %es
     85f:	75 9f                	jne    800 <mb2_hdr_begin-0xff800>
     861:	05 10 06 01 05       	add    $0x5010610,%eax
     866:	09 37                	or     %esi,(%edi)
     868:	90                   	nop
     869:	05 06 06 03 79       	add    $0x79030606,%eax
     86e:	01 05 09 18 06 13    	add    %eax,0x13061809
     874:	05 1a 3b 05 09       	add    $0x9053b1a,%eax
     879:	06                   	push   %es
     87a:	75 9f                	jne    81b <mb2_hdr_begin-0xff7e5>
     87c:	06                   	push   %es
     87d:	11 05 01 03 09 82    	adc    %eax,0x82090301
     883:	06                   	push   %es
     884:	4d                   	dec    %ebp
     885:	05 05 13 05 01       	add    $0x1051305,%eax
     88a:	06                   	push   %es
     88b:	11 66 05             	adc    %esp,0x5(%esi)
     88e:	05 06 3e 06 9e       	add    $0x9e063e06,%eax
     893:	05 09 5d 2e 05       	add    $0x52e5d09,%eax
     898:	01 03                	add    %eax,(%ebx)
     89a:	09 01                	or     %eax,(%ecx)
     89c:	05 09 06 03 7a       	add    $0x7a030609,%eax
     8a1:	66 06                	pushw  %es
     8a3:	13 05 1a 3b 05 09    	adc    0x9053b1a,%eax
     8a9:	06                   	push   %es
     8aa:	75 9f                	jne    84b <mb2_hdr_begin-0xff7b5>
     8ac:	05 10 06 01 05       	add    $0x5010610,%eax
     8b1:	09 37                	or     %esi,(%edi)
     8b3:	90                   	nop
     8b4:	05 06 06 03 78       	add    $0x78030606,%eax
     8b9:	01 05 09 19 06 13    	add    %eax,0x13061909
     8bf:	05 1a 3b 05 09       	add    $0x9053b1a,%eax
     8c4:	06                   	push   %es
     8c5:	75 9f                	jne    866 <mb2_hdr_begin-0xff79a>
     8c7:	06                   	push   %es
     8c8:	11 05 01 03 09 82    	adc    %eax,0x82090301
     8ce:	06                   	push   %es
     8cf:	4d                   	dec    %ebp
     8d0:	05 05 13 05 01       	add    $0x1051305,%eax
     8d5:	06                   	push   %es
     8d6:	11 05 14 59 05 08    	adc    %eax,0x8055914
     8dc:	9f                   	lahf
     8dd:	05 14 3b 05 05       	add    $0x5053b14,%eax
     8e2:	06                   	push   %es
     8e3:	59                   	pop    %ecx
     8e4:	05 08 06 01 05       	add    $0x5010608,%eax
     8e9:	09 06                	or     %eax,(%esi)
     8eb:	85 05 06 03 55 01    	test   %eax,0x1550306
     8f1:	05 05 14 05 1a       	add    $0x1a051405,%eax
     8f6:	06                   	push   %es
     8f7:	16                   	push   %ss
     8f8:	05 05 70 05 09       	add    $0x9057005,%eax
     8fd:	06                   	push   %es
     8fe:	de 05 1a 06 01 05    	fiadds 0x501061a
     904:	09 3d 05 1a 3b 05    	or     %edi,0x53b1a05
     90a:	09 06                	or     %eax,(%esi)
     90c:	67 9f                	addr16 lahf
     90e:	06                   	push   %es
     90f:	01 73 05             	add    %esi,0x5(%ebx)
     912:	0d 06 03 23 3c       	or     $0x3c230306,%eax
     917:	05 29 06 01 05       	add    $0x5010629,%eax
     91c:	2f                   	das
     91d:	76 05                	jbe    924 <mb2_hdr_begin-0xff6dc>
     91f:	0d 59 05 2f 39       	or     $0x392f0559,%eax
     924:	05 0d 06 75 05       	add    $0x575060d,%eax
     929:	35 06 01 05 0d       	xor    $0xd050106,%eax
     92e:	06                   	push   %es
     92f:	75 05                	jne    936 <mb2_hdr_begin-0xff6ca>
     931:	2a 06                	sub    (%esi),%al
     933:	01 05 2f 3c 05 0d    	add    %eax,0xd053c2f
     939:	d7                   	xlat   %ds:(%ebx)
     93a:	05 1a 73 05 0d       	add    $0xd05731a,%eax
     93f:	06                   	push   %es
     940:	67 05 01 06 de 4a    	addr16 add $0x4ade0601,%eax
     946:	20 05 09 06 64 05    	and    %al,0x5640609
     94c:	01 06                	add    %eax,(%esi)
     94e:	bc 4a 20 05 06       	mov    $0x605204a,%esp
     953:	06                   	push   %es
     954:	03 47 74             	add    0x74(%edi),%eax
     957:	05 09 18 06 13       	add    $0x13061809,%eax
     95c:	05 1a 3b 05 09       	add    $0x9053b1a,%eax
     961:	06                   	push   %es
     962:	91                   	xchg   %eax,%ecx
     963:	9f                   	lahf
     964:	06                   	push   %es
     965:	11 05 01 03 32 3c    	adc    %eax,0x3c320301
     96b:	4a                   	dec    %edx
     96c:	20 02                	and    %al,(%edx)
     96e:	02 00                	add    (%eax),%al
     970:	01 01                	add    %eax,(%ecx)
     972:	80 00 00             	addb   $0x0,(%eax)
     975:	00 05 00 04 00 40    	add    %al,0x40000400
     97b:	00 00                	add    %al,(%eax)
     97d:	00 01                	add    %al,(%ecx)
     97f:	01 01                	add    %eax,(%ecx)
     981:	fb                   	sti
     982:	0e                   	push   %cs
     983:	0d 00 01 01 01       	or     $0x1010100,%eax
     988:	01 00                	add    %eax,(%eax)
     98a:	00 00                	add    %al,(%eax)
     98c:	01 00                	add    %eax,(%eax)
     98e:	00 01                	add    %al,(%ecx)
     990:	01 01                	add    %eax,(%ecx)
     992:	1f                   	pop    %ds
     993:	04 00                	add    $0x0,%al
     995:	00 00                	add    %al,(%eax)
     997:	00 aa 01 00 00 4b    	add    %ch,0x4b000001(%edx)
     99d:	00 00                	add    %al,(%eax)
     99f:	00 a2 02 00 00 02    	add    %ah,0x2000002(%edx)
     9a5:	01 1f                	add    %ebx,(%edi)
     9a7:	02 0f                	add    (%edi),%cl
     9a9:	04 98                	add    $0x98,%al
     9ab:	01 00                	add    %eax,(%eax)
     9ad:	00 01                	add    %al,(%ecx)
     9af:	98                   	cwtl
     9b0:	01 00                	add    %eax,(%eax)
     9b2:	00 01                	add    %al,(%ecx)
     9b4:	c1 00 00             	roll   $0x0,(%eax)
     9b7:	00 02                	add    %al,(%edx)
     9b9:	02 01                	add    (%ecx),%al
     9bb:	00 00                	add    %al,(%eax)
     9bd:	03 05 01 00 05 02    	add    0x2050001,%eax
     9c3:	d0 08                	rorb   $1,(%eax)
     9c5:	10 00                	adc    %al,(%eax)
     9c7:	17                   	pop    %ss
     9c8:	05 05 14 05 01       	add    $0x1051405,%eax
     9cd:	06                   	push   %es
     9ce:	10 74 05 05          	adc    %dh,0x5(%ebp,%eax,1)
     9d2:	3e 76 3a             	jbe,pt a0f <mb2_hdr_begin-0xff5f1>
     9d5:	06                   	push   %es
     9d6:	59                   	pop    %ecx
     9d7:	59                   	pop    %ecx
     9d8:	9f                   	lahf
     9d9:	05 15 06 01 05       	add    $0x5010615,%eax
     9de:	05 06 bb 05 17       	add    $0x1705bb06,%eax
     9e3:	06                   	push   %es
     9e4:	01 05 01 3d 05 17    	add    %eax,0x17053d01
     9ea:	3b 05 01 75 05 17    	cmp    0x17057501,%eax
     9f0:	1f                   	pop    %ds
     9f1:	02 05 00 01 01 80    	add    0x80010100,%al
     9f7:	00 00                	add    %al,(%eax)
     9f9:	00 05 00 04 00 37    	add    %al,0x37000400
     9ff:	00 00                	add    %al,(%eax)
     a01:	00 01                	add    %al,(%ecx)
     a03:	01 01                	add    %eax,(%ecx)
     a05:	fb                   	sti
     a06:	0e                   	push   %cs
     a07:	0d 00 01 01 01       	or     $0x1010100,%eax
     a0c:	01 00                	add    %eax,(%eax)
     a0e:	00 00                	add    %al,(%eax)
     a10:	01 00                	add    %eax,(%eax)
     a12:	00 01                	add    %al,(%ecx)
     a14:	01 01                	add    %eax,(%ecx)
     a16:	1f                   	pop    %ds
     a17:	03 00                	add    (%eax),%eax
     a19:	00 00                	add    %al,(%eax)
     a1b:	00 ce                	add    %cl,%dh
     a1d:	01 00                	add    %eax,(%eax)
     a1f:	00 4b 00             	add    %cl,0x0(%ebx)
     a22:	00 00                	add    %al,(%eax)
     a24:	02 01                	add    (%ecx),%al
     a26:	1f                   	pop    %ds
     a27:	02 0f                	add    (%edi),%cl
     a29:	03 c9                	add    %ecx,%ecx
     a2b:	01 00                	add    %eax,(%eax)
     a2d:	00 01                	add    %al,(%ecx)
     a2f:	c9                   	leave
     a30:	01 00                	add    %eax,(%eax)
     a32:	00 01                	add    %al,(%ecx)
     a34:	c1 00 00             	roll   $0x0,(%eax)
     a37:	00 02                	add    %al,(%edx)
     a39:	05 01 00 05 02       	add    $0x2050001,%eax
     a3e:	20 09                	and    %cl,(%ecx)
     a40:	10 00                	adc    %al,(%eax)
     a42:	16                   	push   %ss
     a43:	05 05 14 13 05       	add    $0x5131405,%eax
     a48:	01 06                	add    %eax,(%esi)
     a4a:	0f 05                	syscall
     a4c:	05 3f 06 4b 05       	add    $0x54b063f,%eax
     a51:	01 06                	add    %eax,(%esi)
     a53:	13 06                	adc    (%esi),%eax
     a55:	94                   	xchg   %eax,%esp
     a56:	05 05 13 05 01       	add    $0x1051305,%eax
     a5b:	06                   	push   %es
     a5c:	11 05 05 3d 05 01    	adc    %eax,0x1053d05
     a62:	91                   	xchg   %eax,%ecx
     a63:	06                   	push   %es
     a64:	4d                   	dec    %ebp
     a65:	05 05 13 05 0d       	add    $0xd051305,%eax
     a6a:	03 79 01             	add    0x1(%ecx),%edi
     a6d:	05 05 14 06 4a       	add    $0x4a061405,%eax
     a72:	05 01 18 02 01       	add    $0x1021801,%eax
     a77:	00 01                	add    %al,(%ecx)
     a79:	01 b0 00 00 00 05    	add    %esi,0x5000000(%eax)
     a7f:	00 04 00             	add    %al,(%eax,%eax,1)
     a82:	40                   	inc    %eax
     a83:	00 00                	add    %al,(%eax)
     a85:	00 01                	add    %al,(%ecx)
     a87:	01 01                	add    %eax,(%ecx)
     a89:	fb                   	sti
     a8a:	0e                   	push   %cs
     a8b:	0d 00 01 01 01       	or     $0x1010100,%eax
     a90:	01 00                	add    %eax,(%eax)
     a92:	00 00                	add    %al,(%eax)
     a94:	01 00                	add    %eax,(%eax)
     a96:	00 01                	add    %al,(%ecx)
     a98:	01 01                	add    %eax,(%ecx)
     a9a:	1f                   	pop    %ds
     a9b:	04 00                	add    $0x0,%al
     a9d:	00 00                	add    %al,(%eax)
     a9f:	00 ef                	add    %ch,%bh
     aa1:	01 00                	add    %eax,(%eax)
     aa3:	00 4b 00             	add    %cl,0x0(%ebx)
     aa6:	00 00                	add    %al,(%eax)
     aa8:	a2 02 00 00 02       	mov    %al,0x2000002
     aad:	01 1f                	add    %ebx,(%edi)
     aaf:	02 0f                	add    (%edi),%cl
     ab1:	04 e9                	add    $0xe9,%al
     ab3:	01 00                	add    %eax,(%eax)
     ab5:	00 01                	add    %al,(%ecx)
     ab7:	e9 01 00 00 01       	jmp    1000abd <currentModifiers+0xefd01f>
     abc:	c1 00 00             	roll   $0x0,(%eax)
     abf:	00 02                	add    %al,(%edx)
     ac1:	02 01                	add    (%ecx),%al
     ac3:	00 00                	add    %al,(%eax)
     ac5:	03 05 01 00 05 02    	add    0x2050001,%eax
     acb:	50                   	push   %eax
     acc:	09 10                	or     %edx,(%eax)
     ace:	00 19                	add    %bl,(%ecx)
     ad0:	05 05 14 05 01       	add    $0x1051405,%eax
     ad5:	06                   	push   %es
     ad6:	10 05 08 68 05 05    	adc    %al,0x5056808
     adc:	06                   	push   %es
     add:	69 05 01 06 bb 05 09 	imul   $0x57f0609,0x5bb0601,%eax
     ae4:	06 7f 05 
     ae7:	01 03                	add    %eax,(%ebx)
     ae9:	0c 08                	or     $0x8,%al
     aeb:	e4 05                	in     $0x5,%al
     aed:	05 13 15 05 01       	add    $0x1051513,%eax
     af2:	06                   	push   %es
     af3:	0e                   	push   %cs
     af4:	90                   	nop
     af5:	05 0a 6a 75 73       	add    $0x73756a0a,%eax
     afa:	05 05 06 3d 05       	add    $0x53d0605,%eax
     aff:	0a 06                	or     (%esi),%al
     b01:	01 05 05 06 5a 05    	add    %eax,0x55a0605
     b07:	0a 06                	or     (%esi),%al
     b09:	10 05 05 3e 06 ad    	adc    %al,0xad063e05
     b0f:	59                   	pop    %ecx
     b10:	d7                   	xlat   %ds:(%ebx)
     b11:	59                   	pop    %ecx
     b12:	e5 59                	in     $0x59,%eax
     b14:	08 21                	or     %ah,(%ecx)
     b16:	59                   	pop    %ecx
     b17:	ad                   	lods   %ds:(%esi),%eax
     b18:	59                   	pop    %ecx
     b19:	d7                   	xlat   %ds:(%ebx)
     b1a:	5a                   	pop    %edx
     b1b:	ad                   	lods   %ds:(%esi),%eax
     b1c:	59                   	pop    %ecx
     b1d:	d7                   	xlat   %ds:(%ebx)
     b1e:	5a                   	pop    %edx
     b1f:	9f                   	lahf
     b20:	06                   	push   %es
     b21:	d6                   	(bad)
     b22:	05 01 3d 4a 05       	add    $0x54a3d01,%eax
     b27:	05 3b 02 05 00       	add    $0x5023b,%eax
     b2c:	01 01                	add    %eax,(%ecx)
     b2e:	8d 00                	lea    (%eax),%eax
     b30:	00 00                	add    %al,(%eax)
     b32:	05 00 04 00 54       	add    $0x54000400,%eax
     b37:	00 00                	add    %al,(%eax)
     b39:	00 01                	add    %al,(%ecx)
     b3b:	01 01                	add    %eax,(%ecx)
     b3d:	fb                   	sti
     b3e:	0e                   	push   %cs
     b3f:	0d 00 01 01 01       	or     $0x1010100,%eax
     b44:	01 00                	add    %eax,(%eax)
     b46:	00 00                	add    %al,(%eax)
     b48:	01 00                	add    %eax,(%eax)
     b4a:	00 01                	add    %al,(%ecx)
     b4c:	01 01                	add    %eax,(%ecx)
     b4e:	1f                   	pop    %ds
     b4f:	04 00                	add    $0x0,%al
     b51:	00 00                	add    %al,(%eax)
     b53:	00 1c 00             	add    %bl,(%eax,%eax,1)
     b56:	00 00                	add    %al,(%eax)
     b58:	a2 02 00 00 82       	mov    %al,0x82000002
     b5d:	00 00                	add    %al,(%eax)
     b5f:	00 02                	add    %al,(%edx)
     b61:	01 1f                	add    %ebx,(%edi)
     b63:	02 0f                	add    (%edi),%cl
     b65:	08 04 02             	or     %al,(%edx,%eax,1)
     b68:	00 00                	add    %al,(%eax)
     b6a:	01 04 02             	add    %eax,(%edx,%eax,1)
     b6d:	00 00                	add    %al,(%eax)
     b6f:	01 0d 02 00 00 02    	add    %ecx,0x2000002
     b75:	13 02                	adc    (%edx),%eax
     b77:	00 00                	add    %al,(%eax)
     b79:	02 3d 01 00 00 02    	add    0x2000001,%bh
     b7f:	f9                   	stc
     b80:	00 00                	add    %al,(%eax)
     b82:	00 02                	add    %al,(%edx)
     b84:	ff 00                	incl   (%eax)
     b86:	00 00                	add    %al,(%eax)
     b88:	03 25 02 00 00 02    	add    0x2000002,%esp
     b8e:	05 01 00 05 02       	add    $0x2050001,%eax
     b93:	80 0a 10             	orb    $0x10,(%edx)
     b96:	00 03                	add    %al,(%ebx)
     b98:	0b 01                	or     (%ecx),%eax
     b9a:	05 02 13 05 01       	add    $0x1051302,%eax
     b9f:	06                   	push   %es
     ba0:	11 05 02 67 06 59    	adc    %eax,0x59066702
     ba6:	c9                   	leave
     ba7:	59                   	pop    %ecx
     ba8:	bb bb bb 59 bb       	mov    $0xbb59bbbb,%ebx
     bad:	ad                   	lods   %ds:(%esi),%eax
     bae:	08 30                	or     %dh,(%eax)
     bb0:	05 03 00 02 04       	add    $0x4020003,%eax
     bb5:	01 15 05 08 1d 02    	add    %edx,0x21d0805
     bbb:	02 00                	add    (%eax),%al
     bbd:	01 01                	add    %eax,(%ecx)
     bbf:	b8 04 00 00 05       	mov    $0x5000004,%eax
     bc4:	00 04 00             	add    %al,(%eax,%eax,1)
     bc7:	4f                   	dec    %edi
     bc8:	00 00                	add    %al,(%eax)
     bca:	00 01                	add    %al,(%ecx)
     bcc:	01 01                	add    %eax,(%ecx)
     bce:	fb                   	sti
     bcf:	0e                   	push   %cs
     bd0:	0d 00 01 01 01       	or     $0x1010100,%eax
     bd5:	01 00                	add    %eax,(%eax)
     bd7:	00 00                	add    %al,(%eax)
     bd9:	01 00                	add    %eax,(%eax)
     bdb:	00 01                	add    %al,(%ecx)
     bdd:	01 01                	add    %eax,(%ecx)
     bdf:	1f                   	pop    %ds
     be0:	04 3a                	add    $0x3a,%al
     be2:	02 00                	add    (%eax),%al
     be4:	00 5b 02             	add    %bl,0x2(%ebx)
     be7:	00 00                	add    %al,(%eax)
     be9:	4b                   	dec    %ebx
     bea:	00 00                	add    %al,(%eax)
     bec:	00 7a 00             	add    %bh,0x0(%edx)
     bef:	00 00                	add    %al,(%eax)
     bf1:	02 01                	add    (%ecx),%al
     bf3:	1f                   	pop    %ds
     bf4:	02 0f                	add    (%edi),%cl
     bf6:	07                   	pop    %es
     bf7:	31 02                	xor    %eax,(%edx)
     bf9:	00 00                	add    %al,(%eax)
     bfb:	01 31                	add    %esi,(%ecx)
     bfd:	02 00                	add    (%eax),%al
     bff:	00 01                	add    %al,(%ecx)
     c01:	61                   	popa
     c02:	02 00                	add    (%eax),%al
     c04:	00 02                	add    %al,(%edx)
     c06:	b8 00 00 00 02       	mov    $0x2000000,%eax
     c0b:	c1 00 00             	roll   $0x0,(%eax)
     c0e:	00 02                	add    %al,(%edx)
     c10:	ff 00                	incl   (%eax)
     c12:	00 00                	add    %al,(%eax)
     c14:	03 ce                	add    %esi,%ecx
     c16:	00 00                	add    %al,(%eax)
     c18:	00 03                	add    %al,(%ebx)
     c1a:	05 01 00 05 02       	add    $0x2050001,%eax
     c1f:	00 0b                	add    %cl,(%ebx)
     c21:	10 00                	adc    %al,(%eax)
     c23:	03 13                	add    (%ebx),%edx
     c25:	01 06                	add    %eax,(%esi)
     c27:	01 05 02 06 3d 13    	add    %eax,0x133d0602
     c2d:	05 01 06 10 05       	add    $0x5100601,%eax
     c32:	02 30                	add    (%eax),%dh
     c34:	05 01 3a 05 02       	add    $0x2053a01,%eax
     c39:	4c                   	dec    %esp
     c3a:	06                   	push   %es
     c3b:	3e 14 05             	ds adc $0x5,%al
     c3e:	11 01                	adc    %eax,(%ecx)
     c40:	05 09 06 01 05       	add    $0x5010609,%eax
     c45:	06                   	push   %es
     c46:	3a 05 09 76 05 11    	cmp    0x11057609,%al
     c4c:	3c 03                	cmp    $0x3,%al
     c4e:	f0 00 82 ba 05 03 06 	lock add %al,0x60305ba(%edx)
     c55:	03 92 7f 01 05 1b    	add    0x1b05017f(%edx),%edx
     c5b:	06                   	push   %es
     c5c:	01 05 03 06 ca 05    	add    %eax,0x5ca0603
     c62:	06                   	push   %es
     c63:	06                   	push   %es
     c64:	01 05 21 00 02 04    	add    %eax,0x4020021
     c6a:	01 90 05 18 00 02    	add    %edx,0x2001805(%eax)
     c70:	04 01                	add    $0x1,%al
     c72:	4a                   	dec    %edx
     c73:	05 03 06 03 13       	add    $0x13030603,%eax
     c78:	82 14 05 04 03 90 01 	adcb   $0x8,0x1900304(,%eax,1)
     c7f:	08 
     c80:	58                   	pop    %eax
     c81:	13 05 14 06 01 05    	adc    0x5010614,%eax
     c87:	07                   	pop    %es
     c88:	91                   	xchg   %eax,%ecx
     c89:	05 14 3b 05 04       	add    $0x4053b14,%eax
     c8e:	06                   	push   %es
     c8f:	2f                   	das
     c90:	05 07 06 01 05       	add    $0x5010607,%eax
     c95:	17                   	pop    %ss
     c96:	00 02                	add    %al,(%edx)
     c98:	04 01                	add    $0x1,%al
     c9a:	06                   	push   %es
     c9b:	03 c7                	add    %edi,%eax
     c9d:	7e 58                	jle    cf7 <mb2_hdr_begin-0xff309>
     c9f:	05 22 00 02 04       	add    $0x4020022,%eax
     ca4:	02 08                	add    (%eax),%cl
     ca6:	4a                   	dec    %edx
     ca7:	05 17 00 02 04       	add    $0x4020017,%eax
     cac:	01 01                	add    %eax,(%ecx)
     cae:	00 02                	add    %al,(%edx)
     cb0:	04 01                	add    $0x1,%al
     cb2:	06                   	push   %es
     cb3:	3c 05                	cmp    $0x5,%al
     cb5:	03 06                	add    (%esi),%eax
     cb7:	84 05 07 06 01 05    	test   %al,0x5010607
     cbd:	06                   	push   %es
     cbe:	00 02                	add    %al,(%edx)
     cc0:	04 01                	add    $0x1,%al
     cc2:	ba 00 02 04 01       	mov    $0x1040200,%edx
     cc7:	90                   	nop
     cc8:	05 0c 03 1a 01       	add    $0x11a030c,%eax
     ccd:	74 05                	je     cd4 <mb2_hdr_begin-0xff32c>
     ccf:	01 03                	add    %eax,(%ebx)
     cd1:	ac                   	lods   %ds:(%esi),%al
     cd2:	01 01                	add    %eax,(%ecx)
     cd4:	05 04 06 03 ee       	add    $0xee030604,%eax
     cd9:	7e ac                	jle    c87 <mb2_hdr_begin-0xff379>
     cdb:	13 05 10 06 01 05    	adc    0x5010610,%eax
     ce1:	11 3d 05 10 3b 05    	adc    %edi,0x53b1005
     ce7:	04 06                	add    $0x6,%al
     ce9:	83 05 11 06 01 05 07 	addl   $0x7,0x5010611
     cf0:	67 05 11 3b 05 04    	addr16 add $0x4053b11,%eax
     cf6:	06                   	push   %es
     cf7:	2f                   	das
     cf8:	05 07 06 01 05       	add    $0x5010607,%eax
     cfd:	17                   	pop    %ss
     cfe:	00 02                	add    %al,(%edx)
     d00:	04 01                	add    $0x1,%al
     d02:	06                   	push   %es
     d03:	03 47 58             	add    0x58(%edi),%eax
     d06:	05 22 00 02 04       	add    $0x4020022,%eax
     d0b:	02 08                	add    (%eax),%cl
     d0d:	74 05                	je     d14 <mb2_hdr_begin-0xff2ec>
     d0f:	17                   	pop    %ss
     d10:	00 02                	add    %al,(%edx)
     d12:	04 01                	add    $0x1,%al
     d14:	01 00                	add    %eax,(%eax)
     d16:	02 04 01             	add    (%ecx,%eax,1),%al
     d19:	06                   	push   %es
     d1a:	3c 05                	cmp    $0x5,%al
     d1c:	03 06                	add    (%esi),%eax
     d1e:	84 05 07 06 01 05    	test   %al,0x5010607
     d24:	06                   	push   %es
     d25:	00 02                	add    %al,(%edx)
     d27:	04 01                	add    $0x1,%al
     d29:	ba 00 02 04 01       	mov    $0x1040200,%edx
     d2e:	9e                   	sahf
     d2f:	05 04 06 03 f8       	add    $0xf8030604,%eax
     d34:	00 01                	add    %al,(%ecx)
     d36:	13 05 0a 06 01 05    	adc    0x501060a,%eax
     d3c:	10 44 05 0a          	adc    %al,0xa(%ebp,%eax,1)
     d40:	03 78 4a             	add    0x4a(%eax),%edi
     d43:	66 05 04 06          	add    $0x604,%ax
     d47:	30 13                	xor    %dl,(%ebx)
     d49:	13 05 11 06 11 05    	adc    0x5110611,%eax
     d4f:	04 06                	add    $0x6,%al
     d51:	af                   	scas   %es:(%edi),%eax
     d52:	14 13                	adc    $0x13,%al
     d54:	14 05                	adc    $0x5,%al
     d56:	0b 01                	or     (%ecx),%eax
     d58:	05 0a 06 7d 3c       	add    $0x3c7d060a,%eax
     d5d:	05 05 06 35 05       	add    $0x5350605,%eax
     d62:	2e 06                	cs push %es
     d64:	01 05 13 2e 05 2e    	add    %eax,0x2e052e13
     d6a:	3c 05                	cmp    $0x5,%al
     d6c:	0b 3a                	or     (%edx),%edi
     d6e:	05 13 3e 05 05       	add    $0x5053e13,%eax
     d73:	06                   	push   %es
     d74:	91                   	xchg   %eax,%ecx
     d75:	05 0b 0f 05 04       	add    $0x4050f0b,%eax
     d7a:	33 05 07 06 01 05    	xor    0x5010607,%eax
     d80:	3a 86 05 04 06 4a    	cmp    0x4a060405(%esi),%al
     d86:	13 05 07 06 01 05    	adc    0x5010607,%eax
     d8c:	17                   	pop    %ss
     d8d:	00 02                	add    %al,(%edx)
     d8f:	04 01                	add    $0x1,%al
     d91:	06                   	push   %es
     d92:	03 f0                	add    %eax,%esi
     d94:	7e 90                	jle    d26 <mb2_hdr_begin-0xff2da>
     d96:	00 02                	add    %al,(%edx)
     d98:	04 01                	add    $0x1,%al
     d9a:	06                   	push   %es
     d9b:	82 05 22 00 02 04 02 	addb   $0x2,0x4020022
     da2:	06                   	push   %es
     da3:	c8 05 17 00          	enter  $0x1705,$0x0
     da7:	02 04 01             	add    (%ecx,%eax,1),%al
     daa:	01 00                	add    %eax,(%eax)
     dac:	02 04 01             	add    (%ecx,%eax,1),%al
     daf:	06                   	push   %es
     db0:	3c 05                	cmp    $0x5,%al
     db2:	03 06                	add    (%esi),%eax
     db4:	84 05 07 06 01 05    	test   %al,0x5010607
     dba:	06                   	push   %es
     dbb:	00 02                	add    %al,(%edx)
     dbd:	04 01                	add    $0x1,%al
     dbf:	ba 00 02 04 01       	mov    $0x1040200,%edx
     dc4:	c8 05 04 06          	enter  $0x405,$0x6
     dc8:	03 c1                	add    %ecx,%eax
     dca:	00 01                	add    %al,(%ecx)
     dcc:	05 08 06 13 05       	add    $0x5130608,%eax
     dd1:	07                   	pop    %es
     dd2:	43                   	inc    %ebx
     dd3:	05 0a 03 78 4a       	add    $0x4a78030a,%eax
     dd8:	05 04 06 3d 05       	add    $0x53d0604,%eax
     ddd:	08 06                	or     %al,(%esi)
     ddf:	01 05 04 06 a1 14    	add    %eax,0x14a10604
     de5:	14 15                	adc    $0x15,%al
     de7:	05 07 06 01 82       	add    $0x82010607,%eax
     dec:	05 09 03 40 01       	add    $0x1400309,%eax
     df1:	05 11 06 3c 05       	add    $0x53c0611,%eax
     df6:	04 03                	add    $0x3,%al
     df8:	1c c8                	sbb    $0xc8,%al
     dfa:	13 05 13 06 01 05    	adc    0x5010613,%eax
     e00:	04 06                	add    $0x6,%al
     e02:	ad                   	lods   %ds:(%esi),%eax
     e03:	05 07 06 01 3c       	add    $0x3c010607,%eax
     e08:	05 17 00 02 04       	add    $0x4020017,%eax
     e0d:	01 06                	add    %eax,(%esi)
     e0f:	03 54 82 05          	add    0x5(%edx,%eax,4),%edx
     e13:	03 14 05 07 06 01 3c 	add    0x3c010607(,%eax,1),%edx
     e1a:	4a                   	dec    %edx
     e1b:	05 06 00 02 04       	add    $0x4020006,%eax
     e20:	01 58 00             	add    %ebx,0x0(%eax)
     e23:	02 04 01             	add    (%ecx,%eax,1),%al
     e26:	ba 05 0b 03 31       	mov    $0x31030b05,%edx
     e2b:	01 05 0a 03 77 4a    	add    %eax,0x4a77030a
     e31:	05 17 00 02 04       	add    $0x4020017,%eax
     e36:	01 06                	add    %eax,(%esi)
     e38:	03 56 3c             	add    0x3c(%esi),%edx
     e3b:	00 02                	add    %al,(%edx)
     e3d:	04 01                	add    $0x1,%al
     e3f:	06                   	push   %es
     e40:	01 05 04 06 03 33    	add    %eax,0x33030604
     e46:	01 13                	add    %edx,(%ebx)
     e48:	03 e6                	add    %esi,%esp
     e4a:	00 2e                	add    %ch,(%esi)
     e4c:	13 05 0a 06 01 05    	adc    0x501060a,%eax
     e52:	10 44 05 0a          	adc    %al,0xa(%ebp,%eax,1)
     e56:	03 78 4a             	add    0x4a(%eax),%edi
     e59:	05 11 5b 05 0a       	add    $0xa055b11,%eax
     e5e:	71 05                	jno    e65 <mb2_hdr_begin-0xff19b>
     e60:	04 06                	add    $0x6,%al
     e62:	3e 13 13             	adc    %ds:(%ebx),%edx
     e65:	05 11 06 11 05       	add    $0x5110611,%eax
     e6a:	04 06                	add    $0x6,%al
     e6c:	4d                   	dec    %ebp
     e6d:	14 13                	adc    $0x13,%al
     e6f:	14 05                	adc    $0x5,%al
     e71:	0b 01                	or     (%ecx),%eax
     e73:	05 0a 06 7d 05       	add    $0x57d060a,%eax
     e78:	0e                   	push   %cs
     e79:	3f                   	aas
     e7a:	05 0a 2b 05 05       	add    $0x5052b0a,%eax
     e7f:	06                   	push   %es
     e80:	35 05 23 06 01       	xor    $0x1062305,%eax
     e85:	05 13 2e 05 23       	add    $0x23052e13,%eax
     e8a:	3c 05                	cmp    $0x5,%al
     e8c:	0b 3a                	or     (%edx),%edi
     e8e:	05 13 30 05 05       	add    $0x5053013,%eax
     e93:	06                   	push   %es
     e94:	91                   	xchg   %eax,%ecx
     e95:	05 0b 0f 05 3a       	add    $0x3a050f0b,%eax
     e9a:	06                   	push   %es
     e9b:	5d                   	pop    %ebp
     e9c:	05 04 06 90 05       	add    $0x5900604,%eax
     ea1:	3a 06                	cmp    (%esi),%al
     ea3:	01 05 04 06 2f 05    	add    %eax,0x52f0604
     ea9:	07                   	pop    %es
     eaa:	06                   	push   %es
     eab:	01 05 17 00 02 04    	add    %eax,0x4020017
     eb1:	01 06                	add    %eax,(%esi)
     eb3:	03 d4                	add    %esp,%edx
     eb5:	7e 90                	jle    e47 <mb2_hdr_begin-0xff1b9>
     eb7:	05 22 00 02 04       	add    $0x4020022,%eax
     ebc:	02 08                	add    (%eax),%cl
     ebe:	3c 05                	cmp    $0x5,%al
     ec0:	17                   	pop    %ss
     ec1:	00 02                	add    %al,(%edx)
     ec3:	04 01                	add    $0x1,%al
     ec5:	01 00                	add    %eax,(%eax)
     ec7:	02 04 01             	add    (%ecx,%eax,1),%al
     eca:	06                   	push   %es
     ecb:	3c 05                	cmp    $0x5,%al
     ecd:	03 06                	add    (%esi),%eax
     ecf:	84 05 07 06 01 05    	test   %al,0x5010607
     ed5:	06                   	push   %es
     ed6:	00 02                	add    %al,(%edx)
     ed8:	04 01                	add    $0x1,%al
     eda:	ba 00 02 04 01       	mov    $0x1040200,%edx
     edf:	08 12                	or     %dl,(%edx)
     ee1:	05 04 06 03 12       	add    $0x12030604,%eax
     ee6:	01 05 05 13 05 0b    	add    %eax,0xb051305
     eec:	06                   	push   %es
     eed:	01 05 04 06 3d 13    	add    %eax,0x133d0604
     ef3:	05 17 01 05 11       	add    $0x11050117,%eax
     ef8:	06                   	push   %es
     ef9:	01 05 17 4a 05 0b    	add    %eax,0xb054a17
     eff:	81 05 05 06 92 05 08 	addl   $0x5010608,0x5920605
     f06:	06 01 05 
     f09:	17                   	pop    %ss
     f0a:	06                   	push   %es
     f0b:	3b 05 11 06 01 05    	cmp    0x5010611,%eax
     f11:	17                   	pop    %ss
     f12:	4a                   	dec    %edx
     f13:	05 04 06 84 05       	add    $0x5840604,%eax
     f18:	07                   	pop    %es
     f19:	06                   	push   %es
     f1a:	01 05 11 8e 58 3c    	add    %eax,0x3c588e11
     f20:	05 22 00 02 04       	add    $0x4020022,%eax
     f25:	02 06                	add    (%esi),%al
     f27:	03 69 82             	add    -0x7e(%ecx),%ebp
     f2a:	05 17 00 02 04       	add    $0x4020017,%eax
     f2f:	01 01                	add    %eax,(%ecx)
     f31:	00 02                	add    %al,(%edx)
     f33:	04 01                	add    $0x1,%al
     f35:	06                   	push   %es
     f36:	3c 05                	cmp    $0x5,%al
     f38:	03 06                	add    (%esi),%eax
     f3a:	4c                   	dec    %esp
     f3b:	05 07 06 01 05       	add    $0x5010607,%eax
     f40:	06                   	push   %es
     f41:	00 02                	add    %al,(%edx)
     f43:	04 01                	add    $0x1,%al
     f45:	ba 00 02 04 01       	mov    $0x1040200,%edx
     f4a:	08 4a 05             	or     %cl,0x5(%edx)
     f4d:	09 03                	or     %eax,(%ebx)
     f4f:	0c 01                	or     $0x1,%al
     f51:	05 0c 03 13 3c       	add    $0x3c13030c,%eax
     f56:	3c 05                	cmp    $0x5,%al
     f58:	09 03                	or     %eax,(%ebx)
     f5a:	6d                   	insl   (%dx),%es:(%edi)
     f5b:	01 05 04 06 03 12    	add    %eax,0x12030604
     f61:	3c 13                	cmp    $0x13,%al
     f63:	13 05 0b 06 10 05    	adc    0x510060b,%eax
     f69:	04 30                	add    $0x30,%al
     f6b:	58                   	pop    %eax
     f6c:	58                   	pop    %eax
     f6d:	05 0c 03 f5 00       	add    $0xf5030c,%eax
     f72:	01 05 0a 03 63 3c    	add    %eax,0x3c63030a
     f78:	05 04 06 03 1d       	add    $0x1d030604,%eax
     f7d:	3c 13                	cmp    $0x13,%al
     f7f:	06                   	push   %es
     f80:	58                   	pop    %eax
     f81:	06                   	push   %es
     f82:	03 81 7f 01 05 07    	add    0x705017f(%ecx),%eax
     f88:	06                   	push   %es
     f89:	01 3c 05 11 80 05 0b 	add    %edi,0xb058011(,%eax,1)
     f90:	3b 90 3c 2e 05 0c    	cmp    0xc052e3c(%eax),%edx
     f96:	03 9d 01 01 05 0a    	add    0xa050101(%ebp),%ebx
     f9c:	03 67 3c             	add    0x3c(%edi),%esp
     f9f:	05 04 06 03 19       	add    $0x19030604,%eax
     fa4:	3c 13                	cmp    $0x13,%al
     fa6:	06                   	push   %es
     fa7:	58                   	pop    %eax
     fa8:	2e 06                	cs push %es
     faa:	03 0c 01             	add    (%ecx,%eax,1),%ecx
     fad:	13 05 0c 06 11 05    	adc    0x511060c,%eax
     fb3:	0b 3d 05 04 06 2f    	or     0x2f060405,%edi
     fb9:	05 05 03 4b 58       	add    $0x584b0305,%eax
     fbe:	05 07 06 15 05       	add    $0x5150607,%eax
     fc3:	13 39                	adc    (%ecx),%edi
     fc5:	05 04 06 4c 13       	add    $0x134c0604,%eax
     fca:	05 07 06 01 05       	add    $0x5010607,%eax
     fcf:	13 7f 05             	adc    0x5(%edi),%edi
     fd2:	07                   	pop    %es
     fd3:	3f                   	aas
     fd4:	05 05 06 03 46       	add    $0x46030605,%eax
     fd9:	9e                   	sahf
     fda:	13 05 31 06 01 05    	adc    0x5010631,%eax
     fe0:	1e                   	push   %ds
     fe1:	32 05 31 38 3c 05    	xor    0x53c3831,%al
     fe7:	1e                   	push   %ds
     fe8:	32 05 31 38 05 16    	xor    0x16053831,%al
     fee:	06                   	push   %es
     fef:	3e 05 06 22 05 1e    	ds add $0x1e052206,%eax
     ff5:	06                   	push   %es
     ff6:	01 05 0b 74 05 1e    	add    %eax,0x1e05740b
     ffc:	3c 05                	cmp    $0x5,%al
     ffe:	11 d6                	adc    %edx,%esi
    1000:	05 06 06 59 05       	add    $0x5590606,%eax
    1005:	10 06                	adc    %al,(%esi)
    1007:	2e 05 16 06 2b 05    	cs add $0x52b0616,%eax
    100d:	08 06                	or     %al,(%esi)
    100f:	5f                   	pop    %edi
    1010:	05 05 06 82 05       	add    $0x5820605,%eax
    1015:	08 06                	or     %al,(%esi)
    1017:	01 05 06 06 4c 05    	add    %eax,0x54c0606
    101d:	0b 06                	or     (%esi),%eax
    101f:	01 05 05 06 78 05    	add    %eax,0x5780605
    1025:	34 06                	xor    $0x6,%al
    1027:	01 05 05 06 5b 05    	add    %eax,0x55b0605
    102d:	08 06                	or     %al,(%esi)
    102f:	01 05 17 00 02 04    	add    %eax,0x4020017
    1035:	01 06                	add    %eax,(%esi)
    1037:	03 97 7f 90 05 22    	add    0x2205907f(%edi),%edx
    103d:	00 02                	add    %al,(%edx)
    103f:	04 02                	add    $0x2,%al
    1041:	90                   	nop
    1042:	05 17 00 02 04       	add    $0x4020017,%eax
    1047:	01 01                	add    %eax,(%ecx)
    1049:	00 02                	add    %al,(%edx)
    104b:	04 01                	add    $0x1,%al
    104d:	06                   	push   %es
    104e:	3c 05                	cmp    $0x5,%al
    1050:	03 06                	add    (%esi),%eax
    1052:	76 05                	jbe    1059 <mb2_hdr_begin-0xfefa7>
    1054:	07                   	pop    %es
    1055:	06                   	push   %es
    1056:	01 05 06 00 02 04    	add    %eax,0x4020006
    105c:	01 ba 00 02 04 01    	add    %edi,0x1040200(%edx)
    1062:	c8 05 05 06          	enter  $0x505,$0x6
    1066:	03 f4                	add    %esp,%esi
    1068:	00 01                	add    %al,(%ecx)
    106a:	05 0d 06 01 3c       	add    $0x3c01060d,%eax
    106f:	58                   	pop    %eax
    1070:	05 0a 03 2b 01       	add    $0x12b030a,%eax
    1075:	74 02                	je     1079 <mb2_hdr_begin-0xfef87>
    1077:	07                   	pop    %es
    1078:	00 01                	add    %al,(%ecx)
    107a:	01 74 00 00          	add    %esi,0x0(%eax,%eax,1)
    107e:	00 05 00 04 00 40    	add    %al,0x40000400
    1084:	00 00                	add    %al,(%eax)
    1086:	00 01                	add    %al,(%ecx)
    1088:	01 01                	add    %eax,(%ecx)
    108a:	fb                   	sti
    108b:	0e                   	push   %cs
    108c:	0d 00 01 01 01       	or     $0x1010100,%eax
    1091:	01 00                	add    %eax,(%eax)
    1093:	00 00                	add    %al,(%eax)
    1095:	01 00                	add    %eax,(%eax)
    1097:	00 01                	add    %al,(%ecx)
    1099:	01 01                	add    %eax,(%ecx)
    109b:	1f                   	pop    %ds
    109c:	04 3a                	add    $0x3a,%al
    109e:	02 00                	add    (%eax),%al
    10a0:	00 5b 02             	add    %bl,0x2(%ebx)
    10a3:	00 00                	add    %al,(%eax)
    10a5:	4b                   	dec    %ebx
    10a6:	00 00                	add    %al,(%eax)
    10a8:	00 7a 02             	add    %bh,0x2(%edx)
    10ab:	00 00                	add    %al,(%eax)
    10ad:	02 01                	add    (%ecx),%al
    10af:	1f                   	pop    %ds
    10b0:	02 0f                	add    (%edi),%cl
    10b2:	04 70                	add    $0x70,%al
    10b4:	02 00                	add    (%eax),%al
    10b6:	00 01                	add    %al,(%ecx)
    10b8:	70 02                	jo     10bc <mb2_hdr_begin-0xfef44>
    10ba:	00 00                	add    %al,(%eax)
    10bc:	01 b8 00 00 00 02    	add    %edi,0x2000000(%eax)
    10c2:	25 02 00 00 03       	and    $0x3000002,%eax
    10c7:	05 15 00 05 02       	add    $0x2050015,%eax
    10cc:	10 0f                	adc    %cl,(%edi)
    10ce:	10 00                	adc    %al,(%eax)
    10d0:	18 05 02 14 05 15    	sbb    %al,0x15051402
    10d6:	06                   	push   %es
    10d7:	10 05 02 4d 05 15    	adc    %al,0x15054d02
    10dd:	39 3c 05 02 3f 05 0b 	cmp    %edi,0xb053f02(,%eax,1)
    10e4:	3b 05 02 06 3d 5c    	cmp    0x5c3d0602,%eax
    10ea:	05 01 06 13 02       	add    $0x2130601,%eax
    10ef:	07                   	pop    %es
    10f0:	00 01                	add    %al,(%ecx)
    10f2:	01 73 00             	add    %esi,0x0(%ebx)
    10f5:	00 00                	add    %al,(%eax)
    10f7:	05 00 04 00 37       	add    $0x37000400,%eax
    10fc:	00 00                	add    %al,(%eax)
    10fe:	00 01                	add    %al,(%ecx)
    1100:	01 01                	add    %eax,(%ecx)
    1102:	fb                   	sti
    1103:	0e                   	push   %cs
    1104:	0d 00 01 01 01       	or     $0x1010100,%eax
    1109:	01 00                	add    %eax,(%eax)
    110b:	00 00                	add    %al,(%eax)
    110d:	01 00                	add    %eax,(%eax)
    110f:	00 01                	add    %al,(%ecx)
    1111:	01 01                	add    %eax,(%ecx)
    1113:	1f                   	pop    %ds
    1114:	03 3a                	add    (%edx),%edi
    1116:	02 00                	add    (%eax),%al
    1118:	00 c1                	add    %al,%cl
    111a:	02 00                	add    (%eax),%al
    111c:	00 4b 00             	add    %cl,0x0(%ebx)
    111f:	00 00                	add    %al,(%eax)
    1121:	02 01                	add    (%ecx),%al
    1123:	1f                   	pop    %ds
    1124:	02 0f                	add    (%edi),%cl
    1126:	03 b8 02 00 00 01    	add    0x1000002(%eax),%edi
    112c:	b8 02 00 00 01       	mov    $0x1000002,%eax
    1131:	b8 00 00 00 02       	mov    $0x2000000,%eax
    1136:	05 20 00 05 02       	add    $0x2050020,%eax
    113b:	30 0f                	xor    %cl,(%edi)
    113d:	10 00                	adc    %al,(%eax)
    113f:	14 05                	adc    $0x5,%al
    1141:	02 13                	add    (%ebx),%dl
    1143:	13 05 09 01 05 20    	adc    0x20050109,%eax
    1149:	06                   	push   %es
    114a:	10 05 09 21 05 20    	adc    %al,0x20052109
    1150:	2d 2e 05 09 3e       	sub    $0x3e09052e,%eax
    1155:	05 03 06 83 05       	add    $0x5830603,%eax
    115a:	06                   	push   %es
    115b:	06                   	push   %es
    115c:	01 05 09 06 3b 05    	add    %eax,0x53b0609
    1162:	01 06                	add    %eax,(%esi)
    1164:	69 02 02 00 01 01    	imul   $0x1010002,(%edx),%eax
    116a:	52                   	push   %edx
    116b:	00 00                	add    %al,(%eax)
    116d:	00 05 00 04 00 2e    	add    %al,0x2e000400
    1173:	00 00                	add    %al,(%eax)
    1175:	00 01                	add    %al,(%ecx)
    1177:	01 01                	add    %eax,(%ecx)
    1179:	fb                   	sti
    117a:	0e                   	push   %cs
    117b:	0d 00 01 01 01       	or     $0x1010100,%eax
    1180:	01 00                	add    %eax,(%eax)
    1182:	00 00                	add    %al,(%eax)
    1184:	01 00                	add    %eax,(%eax)
    1186:	00 01                	add    %al,(%ecx)
    1188:	01 01                	add    %eax,(%ecx)
    118a:	1f                   	pop    %ds
    118b:	02 00                	add    (%eax),%al
    118d:	00 00                	add    %al,(%eax)
    118f:	00 23                	add    %ah,(%ebx)
    1191:	00 00                	add    %al,(%eax)
    1193:	00 02                	add    %al,(%edx)
    1195:	01 1f                	add    %ebx,(%edi)
    1197:	02 0f                	add    (%edi),%cl
    1199:	02 c8                	add    %al,%cl
    119b:	02 00                	add    (%eax),%al
    119d:	00 01                	add    %al,(%ecx)
    119f:	c8 02 00 00          	enter  $0x2,$0x0
    11a3:	01 00                	add    %eax,(%eax)
    11a5:	05 02 96 0f 10       	add    $0x100f9602,%eax
    11aa:	00 14 21             	add    %dl,(%ecx,%eiz,1)
    11ad:	02 01                	add    (%ecx),%al
    11af:	00 01                	add    %al,(%ecx)
    11b1:	01 00                	add    %eax,(%eax)
    11b3:	05 02 a0 0f 10       	add    $0x100fa002,%eax
    11b8:	00 19                	add    %bl,(%ecx)
    11ba:	21 02                	and    %eax,(%edx)
    11bc:	01 00                	add    %eax,(%eax)
    11be:	01 01                	add    %eax,(%ecx)

Disassembly of section .debug_line_str:

00000000 <.debug_line_str>:
   0:	2f                   	das
   1:	68 6f 6d 65 2f       	push   $0x2f656d6f
   6:	6a 75                	push   $0x75
   8:	61                   	popa
   9:	6e                   	outsb  %ds:(%esi),(%dx)
   a:	6d                   	insl   (%dx),%es:(%edi)
   b:	61                   	popa
   c:	2f                   	das
   d:	46                   	inc    %esi
   e:	61                   	popa
   f:	63 75 6c             	arpl   %esi,0x6c(%ebp)
  12:	74 61                	je     75 <mb2_hdr_begin-0xfff8b>
  14:	64 2f                	fs das
  16:	43                   	inc    %ebx
  17:	75 79                	jne    92 <mb2_hdr_begin-0xfff6e>
  19:	4f                   	dec    %edi
  1a:	53                   	push   %ebx
  1b:	2f                   	das
  1c:	6b 65 72 6e          	imul   $0x6e,0x72(%ebp),%esp
  20:	65 6c                	gs insb (%dx),%es:(%edi)
  22:	00 61 72             	add    %ah,0x72(%ecx)
  25:	63 68 2f             	arpl   %ebp,0x2f(%eax)
  28:	69 33 38 36 00 63    	imul   $0x63003638,(%ebx),%esi
  2e:	72 74                	jb     a4 <mb2_hdr_begin-0xfff5c>
  30:	69 2e 53 00 62 6f    	imul   $0x6f620053,(%esi),%ebp
  36:	6f                   	outsl  %ds:(%esi),(%dx)
  37:	74 2e                	je     67 <mb2_hdr_begin-0xfff99>
  39:	53                   	push   %ebx
  3a:	00 61 72             	add    %ah,0x72(%ecx)
  3d:	63 68 2f             	arpl   %ebp,0x2f(%eax)
  40:	69 33 38 36 2f 74    	imul   $0x742f3638,(%ebx),%esi
  46:	74 79                	je     c1 <mb2_hdr_begin-0xfff3f>
  48:	2e 63 00             	arpl   %eax,%cs:(%eax)
  4b:	2f                   	das
  4c:	68 6f 6d 65 2f       	push   $0x2f656d6f
  51:	6a 75                	push   $0x75
  53:	61                   	popa
  54:	6e                   	outsb  %ds:(%esi),(%dx)
  55:	6d                   	insl   (%dx),%es:(%edi)
  56:	61                   	popa
  57:	2f                   	das
  58:	6f                   	outsl  %ds:(%esi),(%dx)
  59:	70 74                	jo     cf <mb2_hdr_begin-0xfff31>
  5b:	2f                   	das
  5c:	63 72 6f             	arpl   %esi,0x6f(%edx)
  5f:	73 73                	jae    d4 <mb2_hdr_begin-0xfff2c>
  61:	2f                   	das
  62:	6c                   	insb   (%dx),%es:(%edi)
  63:	69 62 2f 67 63 63 2f 	imul   $0x2f636367,0x2f(%edx),%esp
  6a:	69 36 38 36 2d 65    	imul   $0x652d3638,(%esi),%esi
  70:	6c                   	insb   (%dx),%es:(%edi)
  71:	66 2f                	data16 das
  73:	31 35 2e 30 2e 30    	xor    %esi,0x302e302e
  79:	2f                   	das
  7a:	69 6e 63 6c 75 64 65 	imul   $0x6564756c,0x63(%esi),%ebp
  81:	00 2f                	add    %ch,(%edi)
  83:	68 6f 6d 65 2f       	push   $0x2f656d6f
  88:	6a 75                	push   $0x75
  8a:	61                   	popa
  8b:	6e                   	outsb  %ds:(%esi),(%dx)
  8c:	6d                   	insl   (%dx),%es:(%edi)
  8d:	61                   	popa
  8e:	2f                   	das
  8f:	46                   	inc    %esi
  90:	61                   	popa
  91:	63 75 6c             	arpl   %esi,0x6c(%ebp)
  94:	74 61                	je     f7 <mb2_hdr_begin-0xfff09>
  96:	64 2f                	fs das
  98:	43                   	inc    %ebx
  99:	75 79                	jne    114 <mb2_hdr_begin-0xffeec>
  9b:	4f                   	dec    %edi
  9c:	53                   	push   %ebx
  9d:	2f                   	das
  9e:	73 79                	jae    119 <mb2_hdr_begin-0xffee7>
  a0:	73 72                	jae    114 <mb2_hdr_begin-0xffeec>
  a2:	6f                   	outsl  %ds:(%esi),(%dx)
  a3:	6f                   	outsl  %ds:(%esi),(%dx)
  a4:	74 2f                	je     d5 <mb2_hdr_begin-0xfff2b>
  a6:	75 73                	jne    11b <mb2_hdr_begin-0xffee5>
  a8:	72 2f                	jb     d9 <mb2_hdr_begin-0xfff27>
  aa:	69 6e 63 6c 75 64 65 	imul   $0x6564756c,0x63(%esi),%ebp
  b1:	00 76 67             	add    %dh,0x67(%esi)
  b4:	61                   	popa
  b5:	2e 68 00 73 74 64    	cs push $0x64747300
  bb:	64 65 66 2e 68 00 73 	fs gs cs pushw $0x7300
  c2:	74 64                	je     128 <mb2_hdr_begin-0xffed8>
  c4:	69 6e 74 2d 67 63 63 	imul   $0x6363672d,0x74(%esi),%ebp
  cb:	2e 68 00 73 74 72    	cs push $0x72747300
  d1:	69 6e 67 2e 68 00 61 	imul   $0x6100682e,0x67(%esi),%ebp
  d8:	72 63                	jb     13d <mb2_hdr_begin-0xffec3>
  da:	68 2f 69 33 38       	push   $0x3833692f
  df:	36 2f                	ss das
  e1:	67 64 74 2f          	addr16 fs je 114 <mb2_hdr_begin-0xffeec>
  e5:	67 64 74 2e          	addr16 fs je 117 <mb2_hdr_begin-0xffee9>
  e9:	63 00                	arpl   %eax,(%eax)
  eb:	61                   	popa
  ec:	72 63                	jb     151 <mb2_hdr_begin-0xffeaf>
  ee:	68 2f 69 33 38       	push   $0x3833692f
  f3:	36 2f                	ss das
  f5:	67 64 74 00          	addr16 fs je f9 <mb2_hdr_begin-0xfff07>
  f9:	67 64 74 2e          	addr16 fs je 12b <mb2_hdr_begin-0xffed5>
  fd:	68 00 73 74 64       	push   $0x64747300
 102:	69 6f 2e 68 00 61 72 	imul   $0x72610068,0x2e(%edi),%ebp
 109:	63 68 2f             	arpl   %ebp,0x2f(%eax)
 10c:	69 33 38 36 2f 69    	imul   $0x692f3638,(%ebx),%esi
 112:	6e                   	outsb  %ds:(%esi),(%dx)
 113:	74 65                	je     17a <mb2_hdr_begin-0xffe86>
 115:	72 72                	jb     189 <mb2_hdr_begin-0xffe77>
 117:	75 70                	jne    189 <mb2_hdr_begin-0xffe77>
 119:	74 69                	je     184 <mb2_hdr_begin-0xffe7c>
 11b:	6f                   	outsl  %ds:(%esi),(%dx)
 11c:	6e                   	outsb  %ds:(%esi),(%dx)
 11d:	73 2f                	jae    14e <mb2_hdr_begin-0xffeb2>
 11f:	69 64 74 2e 63 00 61 	imul   $0x72610063,0x2e(%esp,%esi,2),%esp
 126:	72 
 127:	63 68 2f             	arpl   %ebp,0x2f(%eax)
 12a:	69 33 38 36 2f 69    	imul   $0x692f3638,(%ebx),%esi
 130:	6e                   	outsb  %ds:(%esi),(%dx)
 131:	74 65                	je     198 <mb2_hdr_begin-0xffe68>
 133:	72 72                	jb     1a7 <mb2_hdr_begin-0xffe59>
 135:	75 70                	jne    1a7 <mb2_hdr_begin-0xffe59>
 137:	74 69                	je     1a2 <mb2_hdr_begin-0xffe5e>
 139:	6f                   	outsl  %ds:(%esi),(%dx)
 13a:	6e                   	outsb  %ds:(%esi),(%dx)
 13b:	73 00                	jae    13d <mb2_hdr_begin-0xffec3>
 13d:	69 64 74 2e 68 00 61 	imul   $0x72610068,0x2e(%esp,%esi,2),%esp
 144:	72 
 145:	63 68 2f             	arpl   %ebp,0x2f(%eax)
 148:	69 33 38 36 2f 69    	imul   $0x692f3638,(%ebx),%esi
 14e:	6e                   	outsb  %ds:(%esi),(%dx)
 14f:	74 65                	je     1b6 <mb2_hdr_begin-0xffe4a>
 151:	72 72                	jb     1c5 <mb2_hdr_begin-0xffe3b>
 153:	75 70                	jne    1c5 <mb2_hdr_begin-0xffe3b>
 155:	74 69                	je     1c0 <mb2_hdr_begin-0xffe40>
 157:	6f                   	outsl  %ds:(%esi),(%dx)
 158:	6e                   	outsb  %ds:(%esi),(%dx)
 159:	73 2f                	jae    18a <mb2_hdr_begin-0xffe76>
 15b:	74 69                	je     1c6 <mb2_hdr_begin-0xffe3a>
 15d:	6d                   	insl   (%dx),%es:(%edi)
 15e:	65 72 2e             	gs jb  18f <mb2_hdr_begin-0xffe71>
 161:	63 00                	arpl   %eax,(%eax)
 163:	61                   	popa
 164:	72 63                	jb     1c9 <mb2_hdr_begin-0xffe37>
 166:	68 2f 69 33 38       	push   $0x3833692f
 16b:	36 2f                	ss das
 16d:	69 6e 74 65 72 72 75 	imul   $0x75727265,0x74(%esi),%ebp
 174:	70 74                	jo     1ea <mb2_hdr_begin-0xffe16>
 176:	69 6f 6e 73 2f 6b 65 	imul   $0x656b2f73,0x6e(%edi),%ebp
 17d:	79 62                	jns    1e1 <mb2_hdr_begin-0xffe1f>
 17f:	6f                   	outsl  %ds:(%esi),(%dx)
 180:	61                   	popa
 181:	72 64                	jb     1e7 <mb2_hdr_begin-0xffe19>
 183:	2e 63 00             	arpl   %eax,%cs:(%eax)
 186:	61                   	popa
 187:	72 63                	jb     1ec <mb2_hdr_begin-0xffe14>
 189:	68 2f 69 33 38       	push   $0x3833692f
 18e:	36 2f                	ss das
 190:	64 72 69             	fs jb  1fc <mb2_hdr_begin-0xffe04>
 193:	76 65                	jbe    1fa <mb2_hdr_begin-0xffe06>
 195:	72 73                	jb     20a <mb2_hdr_begin-0xffdf6>
 197:	2f                   	das
 198:	6b 65 79 62          	imul   $0x62,0x79(%ebp),%esp
 19c:	6f                   	outsl  %ds:(%esi),(%dx)
 19d:	61                   	popa
 19e:	72 64                	jb     204 <mb2_hdr_begin-0xffdfc>
 1a0:	5f                   	pop    %edi
 1a1:	64 72 69             	fs jb  20d <mb2_hdr_begin-0xffdf3>
 1a4:	76 65                	jbe    20b <mb2_hdr_begin-0xffdf5>
 1a6:	72 2e                	jb     1d6 <mb2_hdr_begin-0xffe2a>
 1a8:	63 00                	arpl   %eax,(%eax)
 1aa:	61                   	popa
 1ab:	72 63                	jb     210 <mb2_hdr_begin-0xffdf0>
 1ad:	68 2f 69 33 38       	push   $0x3833692f
 1b2:	36 2f                	ss das
 1b4:	64 72 69             	fs jb  220 <mb2_hdr_begin-0xffde0>
 1b7:	76 65                	jbe    21e <mb2_hdr_begin-0xffde2>
 1b9:	72 73                	jb     22e <mb2_hdr_begin-0xffdd2>
 1bb:	00 61 72             	add    %ah,0x72(%ecx)
 1be:	63 68 2f             	arpl   %ebp,0x2f(%eax)
 1c1:	69 33 38 36 2f 69    	imul   $0x692f3638,(%ebx),%esi
 1c7:	6f                   	outsl  %ds:(%esi),(%dx)
 1c8:	2f                   	das
 1c9:	69 6f 2e 63 00 61 72 	imul   $0x72610063,0x2e(%edi),%ebp
 1d0:	63 68 2f             	arpl   %ebp,0x2f(%eax)
 1d3:	69 33 38 36 2f 69    	imul   $0x692f3638,(%ebx),%esi
 1d9:	6f                   	outsl  %ds:(%esi),(%dx)
 1da:	00 61 72             	add    %ah,0x72(%ecx)
 1dd:	63 68 2f             	arpl   %ebp,0x2f(%eax)
 1e0:	69 33 38 36 2f 70    	imul   $0x702f3638,(%ebx),%esi
 1e6:	69 63 2f 70 69 63 2e 	imul   $0x2e636970,0x2f(%ebx),%esp
 1ed:	63 00                	arpl   %eax,(%eax)
 1ef:	61                   	popa
 1f0:	72 63                	jb     255 <mb2_hdr_begin-0xffdab>
 1f2:	68 2f 69 33 38       	push   $0x3833692f
 1f7:	36 2f                	ss das
 1f9:	70 69                	jo     264 <mb2_hdr_begin-0xffd9c>
 1fb:	63 00                	arpl   %eax,(%eax)
 1fd:	6b 65 72 6e          	imul   $0x6e,0x72(%ebp),%esp
 201:	65 6c                	gs insb (%dx),%es:(%edi)
 203:	2f                   	das
 204:	6b 65 72 6e          	imul   $0x6e,0x72(%ebp),%esp
 208:	65 6c                	gs insb (%dx),%es:(%edi)
 20a:	2e 63 00             	arpl   %eax,%cs:(%eax)
 20d:	70 69                	jo     278 <mb2_hdr_begin-0xffd88>
 20f:	63 2e                	arpl   %ebp,(%esi)
 211:	68 00 6b 65 79       	push   $0x79656b00
 216:	62 6f 61             	bound  %ebp,0x61(%edi)
 219:	72 64                	jb     27f <mb2_hdr_begin-0xffd81>
 21b:	5f                   	pop    %edi
 21c:	64 72 69             	fs jb  288 <mb2_hdr_begin-0xffd78>
 21f:	76 65                	jbe    286 <mb2_hdr_begin-0xffd7a>
 221:	72 2e                	jb     251 <mb2_hdr_begin-0xffdaf>
 223:	68 00 74 74 79       	push   $0x79747400
 228:	2e 68 00 73 74 64    	cs push $0x64747300
 22e:	69 6f 2f 70 72 69 6e 	imul   $0x6e697270,0x2f(%edi),%ebp
 235:	74 66                	je     29d <mb2_hdr_begin-0xffd63>
 237:	2e 63 00             	arpl   %eax,%cs:(%eax)
 23a:	2f                   	das
 23b:	68 6f 6d 65 2f       	push   $0x2f656d6f
 240:	6a 75                	push   $0x75
 242:	61                   	popa
 243:	6e                   	outsb  %ds:(%esi),(%dx)
 244:	6d                   	insl   (%dx),%es:(%edi)
 245:	61                   	popa
 246:	2f                   	das
 247:	46                   	inc    %esi
 248:	61                   	popa
 249:	63 75 6c             	arpl   %esi,0x6c(%ebp)
 24c:	74 61                	je     2af <mb2_hdr_begin-0xffd51>
 24e:	64 2f                	fs das
 250:	43                   	inc    %ebx
 251:	75 79                	jne    2cc <mb2_hdr_begin-0xffd34>
 253:	4f                   	dec    %edi
 254:	53                   	push   %ebx
 255:	2f                   	das
 256:	6c                   	insb   (%dx),%es:(%edi)
 257:	69 62 63 00 73 74 64 	imul   $0x64747300,0x63(%edx),%esp
 25e:	69 6f 00 73 74 64 61 	imul   $0x61647473,0x0(%edi),%ebp
 265:	72 67                	jb     2ce <mb2_hdr_begin-0xffd32>
 267:	2e 68 00 73 74 64    	cs push $0x64747300
 26d:	69 6f 2f 70 75 74 63 	imul   $0x63747570,0x2f(%edi),%ebp
 274:	68 61 72 2e 63       	push   $0x632e7261
 279:	00 2f                	add    %ch,(%edi)
 27b:	68 6f 6d 65 2f       	push   $0x2f656d6f
 280:	6a 75                	push   $0x75
 282:	61                   	popa
 283:	6e                   	outsb  %ds:(%esi),(%dx)
 284:	6d                   	insl   (%dx),%es:(%edi)
 285:	61                   	popa
 286:	2f                   	das
 287:	46                   	inc    %esi
 288:	61                   	popa
 289:	63 75 6c             	arpl   %esi,0x6c(%ebp)
 28c:	74 61                	je     2ef <mb2_hdr_begin-0xffd11>
 28e:	64 2f                	fs das
 290:	43                   	inc    %ebx
 291:	75 79                	jne    30c <mb2_hdr_begin-0xffcf4>
 293:	4f                   	dec    %edi
 294:	53                   	push   %ebx
 295:	2f                   	das
 296:	73 79                	jae    311 <mb2_hdr_begin-0xffcef>
 298:	73 72                	jae    30c <mb2_hdr_begin-0xffcf4>
 29a:	6f                   	outsl  %ds:(%esi),(%dx)
 29b:	6f                   	outsl  %ds:(%esi),(%dx)
 29c:	74 2f                	je     2cd <mb2_hdr_begin-0xffd33>
 29e:	75 73                	jne    313 <mb2_hdr_begin-0xffced>
 2a0:	72 2f                	jb     2d1 <mb2_hdr_begin-0xffd2f>
 2a2:	69 6e 63 6c 75 64 65 	imul   $0x6564756c,0x63(%esi),%ebp
 2a9:	2f                   	das
 2aa:	6b 65 72 6e          	imul   $0x6e,0x72(%ebp),%esp
 2ae:	65 6c                	gs insb (%dx),%es:(%edi)
 2b0:	00 73 74             	add    %dh,0x74(%ebx)
 2b3:	72 69                	jb     31e <mb2_hdr_begin-0xffce2>
 2b5:	6e                   	outsb  %ds:(%esi),(%dx)
 2b6:	67 2f                	addr16 das
 2b8:	73 74                	jae    32e <mb2_hdr_begin-0xffcd2>
 2ba:	72 6c                	jb     328 <mb2_hdr_begin-0xffcd8>
 2bc:	65 6e                	outsb  %gs:(%esi),(%dx)
 2be:	2e 63 00             	arpl   %eax,%cs:(%eax)
 2c1:	73 74                	jae    337 <mb2_hdr_begin-0xffcc9>
 2c3:	72 69                	jb     32e <mb2_hdr_begin-0xffcd2>
 2c5:	6e                   	outsb  %ds:(%esi),(%dx)
 2c6:	67 00 63 72          	add    %ah,0x72(%bp,%di)
 2ca:	74 6e                	je     33a <mb2_hdr_begin-0xffcc6>
 2cc:	2e 53                	cs push %ebx
	...

Disassembly of section .debug_info:

00000000 <.debug_info>:
       0:	1f                   	pop    %ds
       1:	00 00                	add    %al,(%eax)
       3:	00 05 00 01 04 00    	add    %al,0x40100
       9:	00 00                	add    %al,(%eax)
       b:	00 01                	add    %al,(%ecx)
       d:	00 00                	add    %al,(%eax)
       f:	00 00                	add    %al,(%eax)
      11:	0c 00                	or     $0x0,%al
      13:	00 00                	add    %al,(%eax)
      15:	00 00                	add    %al,(%eax)
      17:	00 00                	add    %al,(%eax)
      19:	11 00                	adc    %eax,(%eax)
      1b:	00 00                	add    %al,(%eax)
      1d:	34 00                	xor    $0x0,%al
      1f:	00 00                	add    %al,(%eax)
      21:	01 80 2d 00 00 00    	add    %eax,0x2d(%eax)
      27:	05 00 01 04 12       	add    $0x12040100,%eax
      2c:	00 00                	add    %al,(%eax)
      2e:	00 01                	add    %al,(%ecx)
      30:	58                   	pop    %eax
      31:	00 00                	add    %al,(%eax)
      33:	00 65 01             	add    %ah,0x1(%ebp)
      36:	10 00                	adc    %al,(%eax)
      38:	0e                   	push   %cs
      39:	43                   	inc    %ebx
      3a:	00 00                	add    %al,(%eax)
      3c:	00 11                	add    %dl,(%ecx)
      3e:	00 00                	add    %al,(%eax)
      40:	00 34 00             	add    %dh,(%eax,%eax,1)
      43:	00 00                	add    %al,(%eax)
      45:	01 80 02 54 00 00    	add    %eax,0x5402(%eax)
      4b:	00 2f                	add    %ch,(%edi)
      4d:	65 01 10             	add    %edx,%gs:(%eax)
      50:	00 0e                	add    %cl,(%esi)
      52:	03 00                	add    (%eax),%eax
      54:	86 05 00 00 05 00    	xchg   %al,0x50000
      5a:	01 04 3a             	add    %eax,(%edx,%edi,1)
      5d:	00 00                	add    %al,(%eax)
      5f:	00 1b                	add    %bl,(%ebx)
      61:	a2 00 00 00 1d       	mov    %al,0x1d000000
      66:	3b 00                	cmp    (%eax),%eax
      68:	00 00                	add    %al,(%eax)
      6a:	00 00                	add    %al,(%eax)
      6c:	00 00                	add    %al,(%eax)
      6e:	80 01 10             	addb   $0x10,(%ecx)
      71:	00 2d 02 00 00 a5    	add    %ch,0xa5000002
      77:	00 00                	add    %al,(%eax)
      79:	00 02                	add    %al,(%edx)
      7b:	04 05                	add    $0x5,%al
      7d:	ce                   	into
      7e:	02 00                	add    (%eax),%al
      80:	00 0b                	add    %cl,(%ebx)
      82:	81 00 00 00 03 d6    	addl   $0xd6030000,(%eax)
      88:	17                   	pop    %ss
      89:	3e 00 00             	add    %al,%ds:(%eax)
      8c:	00 0c 2d 00 00 00 02 	add    %cl,0x2000000(,%ebp,1)
      93:	04 07                	add    $0x7,%al
      95:	3f                   	aas
      96:	02 00                	add    (%eax),%al
      98:	00 1c 04             	add    %bl,(%esp,%eax,1)
      9b:	05 69 6e 74 00       	add    $0x746e69,%eax
      a0:	02 08                	add    (%eax),%cl
      a2:	05 c9 02 00 00       	add    $0x2c9,%eax
      a7:	02 0c 04             	add    (%esp,%eax,1),%cl
      aa:	2f                   	das
      ab:	03 00                	add    (%eax),%eax
      ad:	00 02                	add    %al,(%edx)
      af:	10 04 98             	adc    %al,(%eax,%ebx,4)
      b2:	00 00                	add    %al,(%eax)
      b4:	00 02                	add    %al,(%edx)
      b6:	01 06                	add    %eax,(%esi)
      b8:	6d                   	insl   (%dx),%es:(%edi)
      b9:	01 00                	add    %eax,(%eax)
      bb:	00 02                	add    %al,(%edx)
      bd:	02 05 e1 02 00 00    	add    0x2e1,%al
      c3:	0b 51 02             	or     0x2(%ecx),%edx
      c6:	00 00                	add    %al,(%eax)
      c8:	04 2e                	add    $0x2e,%al
      ca:	18 7b 00             	sbb    %bh,0x0(%ebx)
      cd:	00 00                	add    %al,(%eax)
      cf:	02 01                	add    (%ecx),%al
      d1:	08 6b 01             	or     %ch,0x1(%ebx)
      d4:	00 00                	add    %al,(%eax)
      d6:	0b eb                	or     %ebx,%ebp
      d8:	02 00                	add    (%eax),%al
      da:	00 04 31             	add    %al,(%ecx,%esi,1)
      dd:	19 8e 00 00 00 02    	sbb    %ecx,0x2000000(%esi)
      e3:	02 07                	add    (%edi),%al
      e5:	89 01                	mov    %eax,(%ecx)
      e7:	00 00                	add    %al,(%eax)
      e9:	02 08                	add    (%eax),%cl
      eb:	07                   	pop    %es
      ec:	3a 02                	cmp    (%edx),%al
      ee:	00 00                	add    %al,(%eax)
      f0:	02 04 07             	add    (%edi,%eax,1),%al
      f3:	44                   	inc    %esp
      f4:	02 00                	add    (%eax),%al
      f6:	00 1d 19 01 00 00    	add    %bl,0x119
      fc:	07                   	pop    %es
      fd:	04 9c                	add    $0x9c,%al
      ff:	00 00                	add    %al,(%eax)
     101:	00 02                	add    %al,(%edx)
     103:	06                   	push   %es
     104:	06                   	push   %es
     105:	16                   	push   %ss
     106:	01 00                	add    %eax,(%eax)
     108:	00 01                	add    %al,(%ecx)
     10a:	5f                   	pop    %edi
     10b:	03 00                	add    (%eax),%eax
     10d:	00 00                	add    %al,(%eax)
     10f:	01 dd                	add    %ebx,%ebp
     111:	01 00                	add    %eax,(%eax)
     113:	00 01                	add    %al,(%ecx)
     115:	01 3b                	add    %edi,(%ebx)
     117:	03 00                	add    (%eax),%eax
     119:	00 02                	add    %al,(%edx)
     11b:	01 ba 02 00 00 03    	add    %edi,0x3000002(%edx)
     121:	01 9c 01 00 00 04 01 	add    %ebx,0x1040000(%ecx,%eax,1)
     128:	33 01                	xor    (%ecx),%eax
     12a:	00 00                	add    %al,(%eax)
     12c:	05 01 59 02 00       	add    $0x25901,%eax
     131:	00 06                	add    %al,(%esi)
     133:	01 4c 01 00          	add    %ecx,0x0(%ecx,%eax,1)
     137:	00 07                	add    %al,(%edi)
     139:	01 16                	add    %edx,(%esi)
     13b:	02 00                	add    (%eax),%al
     13d:	00 08                	add    %cl,(%eax)
     13f:	01 aa 01 00 00 09    	add    %ebp,0x9000001(%edx)
     145:	01 00                	add    %eax,(%eax)
     147:	02 00                	add    (%eax),%al
     149:	00 0a                	add    %cl,(%edx)
     14b:	01 69 02             	add    %ebp,0x2(%ecx)
     14e:	00 00                	add    %al,(%eax)
     150:	0b 01                	or     (%ecx),%eax
     152:	ec                   	in     (%dx),%al
     153:	01 00                	add    %eax,(%eax)
     155:	00 0c 01             	add    %cl,(%ecx,%eax,1)
     158:	7e 02                	jle    15c <mb2_hdr_begin-0xffea4>
     15a:	00 00                	add    %al,(%eax)
     15c:	0d 01 fa 02 00       	or     $0x2fa01,%eax
     161:	00 0e                	add    %cl,(%esi)
     163:	01 96 02 00 00 0f    	add    %edx,0xf000002(%esi)
     169:	00 12                	add    %dl,(%edx)
     16b:	d7                   	xlat   %ds:(%ebx)
     16c:	02 00                	add    (%eax),%al
     16e:	00 0b                	add    %cl,(%ebx)
     170:	39 00                	cmp    %eax,(%eax)
     172:	00 00                	add    %al,(%eax)
     174:	50                   	push   %eax
     175:	12 2a                	adc    (%edx),%ch
     177:	02 00                	add    (%eax),%al
     179:	00 0c 39             	add    %cl,(%ecx,%edi,1)
     17c:	00 00                	add    %al,(%eax)
     17e:	00 19                	add    %bl,(%ecx)
     180:	1e                   	push   %ds
     181:	0e                   	push   %cs
     182:	01 00                	add    %eax,(%eax)
     184:	00 01                	add    %al,(%ecx)
     186:	10 18                	adc    %bl,(%eax)
     188:	41                   	inc    %ecx
     189:	01 00                	add    %eax,(%eax)
     18b:	00 00                	add    %al,(%eax)
     18d:	80 0b 00             	orb    $0x0,(%ebx)
     190:	13 82 00 00 00 0c    	adc    0xc000000(%edx),%eax
     196:	3c 01                	cmp    $0x1,%al
     198:	00 00                	add    %al,(%eax)
     19a:	08 22                	or     %ah,(%edx)
     19c:	03 00                	add    (%eax),%eax
     19e:	00 12                	add    %dl,(%edx)
     1a0:	0f 2d 00             	cvtps2pi (%eax),%mm0
     1a3:	00 00                	add    %al,(%eax)
     1a5:	05 03 2c 30 10       	add    $0x10302c03,%eax
     1aa:	00 08                	add    %cl,(%eax)
     1ac:	23 01                	and    (%ecx),%eax
     1ae:	00 00                	add    %al,(%eax)
     1b0:	13 0f                	adc    (%edi),%ecx
     1b2:	2d 00 00 00 05       	sub    $0x5000000,%eax
     1b7:	03 28                	add    (%eax),%ebp
     1b9:	30 10                	xor    %dl,(%eax)
     1bb:	00 08                	add    %cl,(%eax)
     1bd:	bf 01 00 00 14       	mov    $0x14000001,%edi
     1c2:	10 6f 00             	adc    %ch,0x0(%edi)
     1c5:	00 00                	add    %al,(%eax)
     1c7:	05 03 24 30 10       	add    $0x10302403,%eax
     1cc:	00 08                	add    %cl,(%eax)
     1ce:	88 00                	mov    %al,(%eax)
     1d0:	00 00                	add    %al,(%eax)
     1d2:	15 12 3c 01 00       	adc    $0x13c12,%eax
     1d7:	00 05 03 20 30 10    	add    %al,0x10302003
     1dd:	00 1f                	add    %bl,(%edi)
     1df:	45                   	inc    %ebp
     1e0:	01 00                	add    %eax,(%eax)
     1e2:	00 05 10 08 2d 00    	add    %al,0x2d0810
     1e8:	00 00                	add    %al,(%eax)
     1ea:	a0 01 00 00 20       	mov    0x20000001,%al
     1ef:	a0 01 00 00 00       	mov    0x1,%al
     1f4:	13 ac 01 00 00 02 01 	adc    0x1020000(%ecx,%eax,1),%ebp
     1fb:	06                   	push   %es
     1fc:	74 01                	je     1ff <mb2_hdr_begin-0xffe01>
     1fe:	00 00                	add    %al,(%eax)
     200:	0c a5                	or     $0xa5,%al
     202:	01 00                	add    %eax,(%eax)
     204:	00 0d 5b 00 00 00    	add    %cl,0x5b
     20a:	46                   	inc    %esi
     20b:	70 03                	jo     210 <mb2_hdr_begin-0xffdf0>
     20d:	10 00                	adc    %al,(%eax)
     20f:	3d 00 00 00 01       	cmp    $0x1000000,%eax
     214:	9c                   	pushf
     215:	34 02                	xor    $0x2,%al
     217:	00 00                	add    %al,(%eax)
     219:	14 ef                	adc    $0xef,%al
     21b:	03 00                	add    (%eax),%eax
     21d:	00 46 27             	add    %al,0x27(%esi)
     220:	a0 01 00 00 02       	mov    0x2000001,%al
     225:	91                   	xchg   %eax,%ecx
     226:	00 15 34 02 00 00    	add    %dl,0x234
     22c:	81 03 10 00 00 81    	addl   $0x81000010,(%ebx)
     232:	03 10                	add    (%eax),%edx
     234:	00 25 00 00 00 47    	add    %ah,0x47000000
     23a:	02 2a                	add    (%edx),%ch
     23c:	02 00                	add    (%eax),%al
     23e:	00 03                	add    %al,(%ebx)
     240:	3e 02 00             	add    %ds:(%eax),%al
     243:	00 0e                	add    %cl,(%esi)
     245:	00 00                	add    %al,(%eax)
     247:	00 0c 00             	add    %cl,(%eax,%eax,1)
     24a:	00 00                	add    %al,(%eax)
     24c:	03 4a 02             	add    0x2(%edx),%ecx
     24f:	00 00                	add    %al,(%eax)
     251:	19 00                	sbb    %eax,(%eax)
     253:	00 00                	add    %al,(%eax)
     255:	17                   	pop    %ss
     256:	00 00                	add    %al,(%eax)
     258:	00 06                	add    %al,(%esi)
     25a:	56                   	push   %esi
     25b:	02 00                	add    (%eax),%al
     25d:	00 81 03 10 00 25    	add    %al,0x25001003(%ecx)
     263:	00 00                	add    %al,(%eax)
     265:	00 04 57             	add    %al,(%edi,%edx,2)
     268:	02 00                	add    (%eax),%al
     26a:	00 27                	add    %ah,(%edi)
     26c:	00 00                	add    %al,(%eax)
     26e:	00 21                	add    %ah,(%ecx)
     270:	00 00                	add    %al,(%eax)
     272:	00 0e                	add    %cl,(%esi)
     274:	9f                   	lahf
     275:	03 10                	add    (%eax),%edx
     277:	00 6b 02             	add    %ch,0x2(%ebx)
     27a:	00 00                	add    %al,(%eax)
     27c:	00 00                	add    %al,(%eax)
     27e:	0e                   	push   %cs
     27f:	81 03 10 00 8a 01    	addl   $0x18a0010,(%ebx)
     285:	00 00                	add    %al,(%eax)
     287:	00 0f                	add    %cl,(%edi)
     289:	ce                   	into
     28a:	01 00                	add    %eax,(%eax)
     28c:	00 41 6b             	add    %al,0x6b(%ecx)
     28f:	02 00                	add    (%eax),%al
     291:	00 09                	add    %cl,(%ecx)
     293:	ef                   	out    %eax,(%dx)
     294:	03 00                	add    (%eax),%eax
     296:	00 01                	add    %al,(%ecx)
     298:	41                   	inc    %ecx
     299:	21 a0 01 00 00 09    	and    %esp,0x9000001(%eax)
     29f:	35 02 00 00 01       	xor    $0x1000002,%eax
     2a4:	41                   	inc    %ecx
     2a5:	2e 2d 00 00 00 0a    	cs sub $0xa000000,%eax
     2ab:	10 69 00             	adc    %ch,0x0(%ecx)
     2ae:	42                   	inc    %edx
     2af:	0e                   	push   %cs
     2b0:	2d 00 00 00 0e       	sub    $0xe000000,%eax
     2b5:	57                   	push   %edi
     2b6:	03 10                	add    (%eax),%edx
     2b8:	00 6b 02             	add    %ch,0x2(%ebx)
     2bb:	00 00                	add    %al,(%eax)
     2bd:	00 00                	add    %al,(%eax)
     2bf:	0d 70 00 00 00       	or     $0x70,%eax
     2c4:	2d 30 02 10 00       	sub    $0x100230,%eax
     2c9:	00 01                	add    %al,(%ecx)
     2cb:	00 00                	add    %al,(%eax)
     2cd:	01 9c ac 03 00 00 21 	add    %ebx,0x21000003(%esp,%ebp,4)
     2d4:	63 00                	arpl   %eax,(%eax)
     2d6:	01 2d 1c a5 01 00    	add    %ebp,0x1a51c
     2dc:	00 02                	add    %al,(%edx)
     2de:	91                   	xchg   %eax,%ecx
     2df:	00 22                	add    %ah,(%edx)
     2e1:	75 63                	jne    346 <mb2_hdr_begin-0xffcba>
     2e3:	00 01                	add    %al,(%ecx)
     2e5:	32 10                	xor    (%eax),%dl
     2e7:	7b 00                	jnp    2e9 <mb2_hdr_begin-0xffd17>
     2e9:	00 00                	add    %al,(%eax)
     2eb:	4d                   	dec    %ebp
     2ec:	00 00                	add    %al,(%eax)
     2ee:	00 4b 00             	add    %cl,0x0(%ebx)
     2f1:	00 00                	add    %al,(%eax)
     2f3:	23 ac 03 00 00 68 02 	and    0x2680000(%ebx,%eax,1),%ebp
     2fa:	10 00                	adc    %al,(%eax)
     2fc:	02 44 00 00          	add    0x0(%eax,%eax,1),%al
     300:	00 01                	add    %al,(%ecx)
     302:	33 02                	xor    (%edx),%eax
     304:	25 03 00 00 03       	and    $0x3000003,%eax
     309:	b6 03                	mov    $0x3,%dh
     30b:	00 00                	add    %al,(%eax)
     30d:	57                   	push   %edi
     30e:	00 00                	add    %al,(%eax)
     310:	00 55 00             	add    %dl,0x0(%ebp)
     313:	00 00                	add    %al,(%eax)
     315:	03 c0                	add    %eax,%eax
     317:	03 00                	add    (%eax),%eax
     319:	00 61 00             	add    %ah,0x0(%ecx)
     31c:	00 00                	add    %al,(%eax)
     31e:	5f                   	pop    %edi
     31f:	00 00                	add    %al,(%eax)
     321:	00 03                	add    %al,(%ebx)
     323:	cc                   	int3
     324:	03 00                	add    (%eax),%eax
     326:	00 6f 00             	add    %ch,0x0(%edi)
     329:	00 00                	add    %al,(%eax)
     32b:	6d                   	insl   (%dx),%es:(%edi)
     32c:	00 00                	add    %al,(%eax)
     32e:	00 03                	add    %al,(%ebx)
     330:	d6                   	(bad)
     331:	03 00                	add    (%eax),%eax
     333:	00 7d 00             	add    %bh,0x0(%ebp)
     336:	00 00                	add    %al,(%eax)
     338:	7b 00                	jnp    33a <mb2_hdr_begin-0xffcc6>
     33a:	00 00                	add    %al,(%eax)
     33c:	24 44                	and    $0x44,%al
     33e:	00 00                	add    %al,(%eax)
     340:	00 04 e0             	add    %al,(%eax,%eiz,8)
     343:	03 00                	add    (%eax),%eax
     345:	00 8b 00 00 00 89    	add    %cl,-0x77000000(%ebx)
     34b:	00 00                	add    %al,(%eax)
     34d:	00 16                	add    %dl,(%esi)
     34f:	3d 04 00 00 68       	cmp    $0x68000004,%eax
     354:	02 10                	add    (%eax),%dl
     356:	00 05 4f 00 00 00    	add    %al,0x4f
     35c:	03 4c 04 00          	add    0x0(%esp,%eax,1),%ecx
     360:	00 a5 00 00 00 a3    	add    %ah,-0x5d000000(%ebp)
     366:	00 00                	add    %al,(%eax)
     368:	00 03                	add    %al,(%ebx)
     36a:	57                   	push   %edi
     36b:	04 00                	add    $0x0,%al
     36d:	00 af 00 00 00 ad    	add    %ch,-0x53000000(%edi)
     373:	00 00                	add    %al,(%eax)
     375:	00 00                	add    %al,(%eax)
     377:	00 00                	add    %al,(%eax)
     379:	15 64 04 00 00       	adc    $0x464,%eax
     37e:	c3                   	ret
     37f:	02 10                	add    (%eax),%dl
     381:	00 02                	add    %al,(%edx)
     383:	c3                   	ret
     384:	02 10                	add    (%eax),%dl
     386:	00 05 00 00 00 37    	add    %al,0x37000000
     38c:	14 50                	adc    $0x50,%al
     38e:	03 00                	add    (%eax),%eax
     390:	00 25 73 04 00 00    	add    %ah,0x473
     396:	03 7e 04             	add    0x4(%esi),%edi
     399:	00 00                	add    %al,(%eax)
     39b:	bd 00 00 00 bb       	mov    $0xbb000000,%ebp
     3a0:	00 00                	add    %al,(%eax)
     3a2:	00 00                	add    %al,(%eax)
     3a4:	26 0f 04             	es (bad)
     3a7:	00 00                	add    %al,(%eax)
     3a9:	ca 02 10             	lret   $0x1002
     3ac:	00 01                	add    %al,(%ecx)
     3ae:	ca 02 10             	lret   $0x1002
     3b1:	00 66 00             	add    %ah,0x0(%esi)
     3b4:	00 00                	add    %al,(%eax)
     3b6:	01 30                	add    %esi,(%eax)
     3b8:	03 06                	add    (%esi),%eax
     3ba:	19 04 00             	sbb    %eax,(%eax,%eax,1)
     3bd:	00 ea                	add    %ch,%dl
     3bf:	02 10                	add    (%eax),%dl
     3c1:	00 46 00             	add    %al,0x0(%esi)
     3c4:	00 00                	add    %al,(%eax)
     3c6:	04 1a                	add    $0x1a,%al
     3c8:	04 00                	add    $0x0,%al
     3ca:	00 c8                	add    %cl,%al
     3cc:	00 00                	add    %al,(%eax)
     3ce:	00 c6                	add    %al,%dh
     3d0:	00 00                	add    %al,(%eax)
     3d2:	00 06                	add    %al,(%esi)
     3d4:	23 04 00             	and    (%eax,%eax,1),%eax
     3d7:	00 f0                	add    %dh,%al
     3d9:	02 10                	add    (%eax),%dl
     3db:	00 1f                	add    %bl,(%edi)
     3dd:	00 00                	add    %al,(%eax)
     3df:	00 04 24             	add    %al,(%esp)
     3e2:	04 00                	add    $0x0,%al
     3e4:	00 d3                	add    %dl,%bl
     3e6:	00 00                	add    %al,(%eax)
     3e8:	00 d1                	add    %dl,%cl
     3ea:	00 00                	add    %al,(%eax)
     3ec:	00 11                	add    %dl,(%ecx)
     3ee:	2d 04 00 00 5a       	sub    $0x5a000004,%eax
     3f3:	00 00                	add    %al,(%eax)
     3f5:	00 17                	add    %dl,(%edi)
     3f7:	2e 04 00             	cs add $0x0,%al
     3fa:	00 00                	add    %al,(%eax)
     3fc:	00 00                	add    %al,(%eax)
     3fe:	00 00                	add    %al,(%eax)
     400:	0f 4b 03             	cmovnp (%ebx),%eax
     403:	00 00                	add    %al,(%eax)
     405:	28 ec                	sub    %ch,%ah
     407:	03 00                	add    (%eax),%eax
     409:	00 05 63 00 01 28    	add    %al,0x28010063
     40f:	28 7b 00             	sub    %bh,0x0(%ebx)
     412:	00 00                	add    %al,(%eax)
     414:	09 1d 01 00 00 01    	or     %ebx,0x1000001
     41a:	28 33                	sub    %dh,(%ebx)
     41c:	6f                   	outsl  %ds:(%esi),(%dx)
     41d:	00 00                	add    %al,(%eax)
     41f:	00 05 78 00 01 28    	add    %al,0x28010078
     425:	41                   	inc    %ecx
     426:	2d 00 00 00 05       	sub    $0x5000000,%eax
     42b:	79 00                	jns    42d <mb2_hdr_begin-0xffbd3>
     42d:	01 28                	add    %ebp,(%eax)
     42f:	4b                   	dec    %ebx
     430:	2d 00 00 00 18       	sub    $0x18000000,%eax
     435:	f4                   	hlt
     436:	02 00                	add    (%eax),%al
     438:	00 29                	add    %ch,(%ecx)
     43a:	0f 39                	(bad)
     43c:	00 00                	add    %al,(%eax)
     43e:	00 00                	add    %al,(%eax)
     440:	0d 10 03 00 00       	or     $0x310,%eax
     445:	24 f0                	and    $0xf0,%al
     447:	01 10                	add    %edx,(%eax)
     449:	00 0d 00 00 00 01    	add    %cl,0x1000000
     44f:	9c                   	pushf
     450:	0f 04                	(bad)
     452:	00 00                	add    %al,(%eax)
     454:	14 1d                	adc    $0x1d,%al
     456:	01 00                	add    %eax,(%eax)
     458:	00 24 20             	add    %ah,(%eax,%eiz,1)
     45b:	6f                   	outsl  %ds:(%esi),(%dx)
     45c:	00 00                	add    %al,(%eax)
     45e:	00 02                	add    %al,(%edx)
     460:	91                   	xchg   %eax,%ecx
     461:	00 00                	add    %al,(%eax)
     463:	0f                   	montmul (bad)
     464:	a6                   	cmpsb  %es:(%edi),%ds:(%esi)
     465:	02 00                	add    (%eax),%al
     467:	00 17                	add    %dl,(%edi)
     469:	3d 04 00 00 0a       	cmp    $0xa000004,%eax
     46e:	10 79 00             	adc    %bh,0x0(%ecx)
     471:	1c 0e                	sbb    $0xe,%al
     473:	2d 00 00 00 0a       	sub    $0xa000000,%eax
     478:	10 78 00             	adc    %bh,0x0(%eax)
     47b:	1d 0f 2d 00 00       	sbb    $0x2d0f,%eax
     480:	00 0a                	add    %cl,(%edx)
     482:	18 f4                	sbb    %dh,%ah
     484:	02 00                	add    (%eax),%al
     486:	00 1e                	add    %bl,(%esi)
     488:	11 39                	adc    %edi,(%ecx)
     48a:	00 00                	add    %al,(%eax)
     48c:	00 00                	add    %al,(%eax)
     48e:	00 00                	add    %al,(%eax)
     490:	00 19                	add    %bl,(%ecx)
     492:	61                   	popa
     493:	01 00                	add    %eax,(%eax)
     495:	00 1d 18 82 00 00    	add    %bl,0x8218
     49b:	00 64 04 00          	add    %ah,0x0(%esp,%eax,1)
     49f:	00 05 75 63 00 02    	add    %al,0x2006375
     4a5:	1d 30 7b 00 00       	sbb    $0x7b30,%eax
     4aa:	00 09                	add    %cl,(%ecx)
     4ac:	1d 01 00 00 02       	sbb    $0x2000001,%eax
     4b1:	1d 3c 6f 00 00       	sbb    $0x6f3c,%eax
     4b6:	00 00                	add    %al,(%eax)
     4b8:	19 79 01             	sbb    %edi,0x1(%ecx)
     4bb:	00 00                	add    %al,(%eax)
     4bd:	19 17                	sbb    %edx,(%edi)
     4bf:	6f                   	outsl  %ds:(%esi),(%dx)
     4c0:	00 00                	add    %al,(%eax)
     4c2:	00 8a 04 00 00 05    	add    %cl,0x5000004(%edx)
     4c8:	66 67 00 02          	data16 add %al,(%bp,%si)
     4cc:	19 36                	sbb    %esi,(%esi)
     4ce:	a3 00 00 00 05       	mov    %eax,0x5000000
     4d3:	62 67 00             	bound  %esp,0x0(%edi)
     4d6:	02 19                	add    (%ecx),%bl
     4d8:	49                   	dec    %ecx
     4d9:	a3 00 00 00 00       	mov    %eax,0x0
     4de:	1a 0f                	sbb    (%edi),%cl
     4e0:	04 00                	add    $0x0,%al
     4e2:	00 80 01 10 00 67    	add    %al,0x67001001(%eax)
     4e8:	00 00                	add    %al,(%eax)
     4ea:	00 01                	add    %al,(%ecx)
     4ec:	9c                   	pushf
     4ed:	e3 04                	jecxz  4f3 <mb2_hdr_begin-0xffb0d>
     4ef:	00 00                	add    %al,(%eax)
     4f1:	06                   	push   %es
     4f2:	19 04 00             	sbb    %eax,(%eax,%eax,1)
     4f5:	00 aa 01 10 00 3c    	add    %ch,0x3c001001(%edx)
     4fb:	00 00                	add    %al,(%eax)
     4fd:	00 04 1a             	add    %al,(%edx,%ebx,1)
     500:	04 00                	add    $0x0,%al
     502:	00 de                	add    %bl,%dh
     504:	00 00                	add    %al,(%eax)
     506:	00 dc                	add    %bl,%ah
     508:	00 00                	add    %al,(%eax)
     50a:	00 06                	add    %al,(%esi)
     50c:	23 04 00             	and    (%eax,%eax,1),%eax
     50f:	00 b0 01 10 00 29    	add    %dh,0x29001001(%eax)
     515:	00 00                	add    %al,(%eax)
     517:	00 04 24             	add    %al,(%esp)
     51a:	04 00                	add    $0x0,%al
     51c:	00 e7                	add    %ah,%bh
     51e:	00 00                	add    %al,(%eax)
     520:	00 e5                	add    %ah,%ch
     522:	00 00                	add    %al,(%eax)
     524:	00 11                	add    %dl,(%ecx)
     526:	2d 04 00 00 25       	sub    $0x25000004,%eax
     52b:	00 00                	add    %al,(%eax)
     52d:	00 17                	add    %dl,(%edi)
     52f:	2e 04 00             	cs add $0x0,%al
     532:	00 00                	add    %al,(%eax)
     534:	00 00                	add    %al,(%eax)
     536:	00 1a                	add    %bl,(%edx)
     538:	ac                   	lods   %ds:(%esi),%al
     539:	03 00                	add    (%eax),%eax
     53b:	00 00                	add    %al,(%eax)
     53d:	02 10                	add    (%eax),%dl
     53f:	00 28                	add    %ch,(%eax)
     541:	00 00                	add    %al,(%eax)
     543:	00 01                	add    %al,(%ecx)
     545:	9c                   	pushf
     546:	4d                   	dec    %ebp
     547:	05 00 00 07 b6       	add    $0xb6070000,%eax
     54c:	03 00                	add    (%eax),%eax
     54e:	00 02                	add    %al,(%edx)
     550:	91                   	xchg   %eax,%ecx
     551:	00 07                	add    %al,(%edi)
     553:	c0 03 00             	rolb   $0x0,(%ebx)
     556:	00 02                	add    %al,(%edx)
     558:	91                   	xchg   %eax,%ecx
     559:	04 07                	add    $0x7,%al
     55b:	cc                   	int3
     55c:	03 00                	add    (%eax),%eax
     55e:	00 02                	add    %al,(%edx)
     560:	91                   	xchg   %eax,%ecx
     561:	08 07                	or     %al,(%edi)
     563:	d6                   	(bad)
     564:	03 00                	add    (%eax),%eax
     566:	00 02                	add    %al,(%edx)
     568:	91                   	xchg   %eax,%ecx
     569:	0c 04                	or     $0x4,%al
     56b:	e0 03                	loopne 570 <mb2_hdr_begin-0xffa90>
     56d:	00 00                	add    %al,(%eax)
     56f:	f0 00 00             	lock add %al,(%eax)
     572:	00 ee                	add    %ch,%dh
     574:	00 00                	add    %al,(%eax)
     576:	00 16                	add    %dl,(%esi)
     578:	3d 04 00 00 0e       	cmp    $0xe000004,%eax
     57d:	02 10                	add    (%eax),%dl
     57f:	00 01                	add    %al,(%ecx)
     581:	2f                   	das
     582:	00 00                	add    %al,(%eax)
     584:	00 03                	add    %al,(%ebx)
     586:	4c                   	dec    %esp
     587:	04 00                	add    $0x0,%al
     589:	00 04 01             	add    %al,(%ecx,%eax,1)
     58c:	00 00                	add    %al,(%eax)
     58e:	02 01                	add    (%ecx),%al
     590:	00 00                	add    %al,(%eax)
     592:	03 57 04             	add    0x4(%edi),%edx
     595:	00 00                	add    %al,(%eax)
     597:	0f 01 00             	sgdtl  (%eax)
     59a:	00 0d 01 00 00 00    	add    %cl,0x1
     5a0:	00 27                	add    %ah,(%edi)
     5a2:	34 02                	xor    $0x2,%al
     5a4:	00 00                	add    %al,(%eax)
     5a6:	30 03                	xor    %al,(%ebx)
     5a8:	10 00                	adc    %al,(%eax)
     5aa:	35 00 00 00 01       	xor    $0x1000000,%eax
     5af:	9c                   	pushf
     5b0:	07                   	pop    %es
     5b1:	3e 02 00             	add    %ds:(%eax),%al
     5b4:	00 02                	add    %al,(%edx)
     5b6:	91                   	xchg   %eax,%ecx
     5b7:	00 03                	add    %al,(%ebx)
     5b9:	4a                   	dec    %edx
     5ba:	02 00                	add    (%eax),%al
     5bc:	00 1c 01             	add    %bl,(%ecx,%eax,1)
     5bf:	00 00                	add    %al,(%eax)
     5c1:	18 01                	sbb    %al,(%ecx)
     5c3:	00 00                	add    %al,(%eax)
     5c5:	11 56 02             	adc    %edx,0x2(%esi)
     5c8:	00 00                	add    %al,(%eax)
     5ca:	6a 00                	push   $0x0
     5cc:	00 00                	add    %al,(%eax)
     5ce:	04 57                	add    $0x57,%al
     5d0:	02 00                	add    (%eax),%al
     5d2:	00 33                	add    %dh,(%ebx)
     5d4:	01 00                	add    %eax,(%eax)
     5d6:	00 2d 01 00 00 00    	add    %ch,0x1
     5dc:	00 00                	add    %al,(%eax)
     5de:	7a 02                	jp     5e2 <mb2_hdr_begin-0xffa1e>
     5e0:	00 00                	add    %al,(%eax)
     5e2:	05 00 01 04 8b       	add    $0x8b040100,%eax
     5e7:	02 00                	add    (%eax),%al
     5e9:	00 0d a2 00 00 00    	add    %cl,0xa2
     5ef:	1d d7 00 00 00       	sbb    $0xd7,%eax
     5f4:	00 00                	add    %al,(%eax)
     5f6:	00 00                	add    %al,(%eax)
     5f8:	d0 03                	rolb   $1,(%ebx)
     5fa:	10 00                	adc    %al,(%eax)
     5fc:	d1 00                	roll   $1,(%eax)
     5fe:	00 00                	add    %al,(%eax)
     600:	ec                   	in     (%dx),%al
     601:	03 00                	add    (%eax),%eax
     603:	00 01                	add    %al,(%ecx)
     605:	01 06                	add    %eax,(%esi)
     607:	6d                   	insl   (%dx),%es:(%edi)
     608:	01 00                	add    %eax,(%eax)
     60a:	00 01                	add    %al,(%ecx)
     60c:	02 05 e1 02 00 00    	add    0x2e1,%al
     612:	01 04 05 ce 02 00 00 	add    %eax,0x2ce(,%eax,1)
     619:	01 08                	add    %ecx,(%eax)
     61b:	05 c9 02 00 00       	add    $0x2c9,%eax
     620:	03 51 02             	add    0x2(%ecx),%edx
     623:	00 00                	add    %al,(%eax)
     625:	2e 18 4d 00          	sbb    %cl,%cs:0x0(%ebp)
     629:	00 00                	add    %al,(%eax)
     62b:	01 01                	add    %eax,(%ecx)
     62d:	08 6b 01             	or     %ch,0x1(%ebx)
     630:	00 00                	add    %al,(%eax)
     632:	03 eb                	add    %ebx,%ebp
     634:	02 00                	add    (%eax),%al
     636:	00 31                	add    %dh,(%ecx)
     638:	19 5f 00             	sbb    %ebx,0x0(%edi)
     63b:	00 00                	add    %al,(%eax)
     63d:	01 02                	add    %eax,(%edx)
     63f:	07                   	pop    %es
     640:	89 01                	mov    %eax,(%ecx)
     642:	00 00                	add    %al,(%eax)
     644:	01 04 07             	add    %eax,(%edi,%eax,1)
     647:	3f                   	aas
     648:	02 00                	add    (%eax),%al
     64a:	00 03                	add    %al,(%ebx)
     64c:	a8 03                	test   $0x3,%al
     64e:	00 00                	add    %al,(%eax)
     650:	37                   	aaa
     651:	19 78 00             	sbb    %edi,0x0(%eax)
     654:	00 00                	add    %al,(%eax)
     656:	01 08                	add    %ecx,(%eax)
     658:	07                   	pop    %es
     659:	3a 02                	cmp    (%edx),%al
     65b:	00 00                	add    %al,(%eax)
     65d:	0e                   	push   %cs
     65e:	04 05                	add    $0x5,%al
     660:	69 6e 74 00 01 04 07 	imul   $0x7040100,0x74(%esi),%ebp
     667:	44                   	inc    %esp
     668:	02 00                	add    (%eax),%al
     66a:	00 03                	add    %al,(%ebx)
     66c:	85 03                	test   %eax,(%ebx)
     66e:	00 00                	add    %al,(%eax)
     670:	56                   	push   %esi
     671:	1a 66 00             	sbb    0x0(%esi),%ah
     674:	00 00                	add    %al,(%eax)
     676:	06                   	push   %es
     677:	8f 03                	pop    (%ebx)
     679:	00 00                	add    %al,(%eax)
     67b:	08 10                	or     %dl,(%eax)
     67d:	10 d1                	adc    %dl,%cl
     67f:	00 00                	add    %al,(%eax)
     681:	00 02                	add    %al,(%edx)
     683:	e2 03                	loop   688 <mb2_hdr_begin-0xff978>
     685:	00 00                	add    %al,(%eax)
     687:	12 54 00 00          	adc    0x0(%eax,%eax,1),%dl
     68b:	00 00                	add    %al,(%eax)
     68d:	02 d7                	add    %bh,%dl
     68f:	03 00                	add    (%eax),%eax
     691:	00 13                	add    %dl,(%ebx)
     693:	54                   	push   %esp
     694:	00 00                	add    %al,(%eax)
     696:	00 02                	add    %al,(%edx)
     698:	02 b8 03 00 00 14    	add    0x14000003(%eax),%bh
     69e:	54                   	push   %esp
     69f:	00 00                	add    %al,(%eax)
     6a1:	00 04 02             	add    %al,(%edx,%eax,1)
     6a4:	dc 03                	faddl  (%ebx)
     6a6:	00 00                	add    %al,(%eax)
     6a8:	15 54 00 00 00       	adc    $0x54,%eax
     6ad:	06                   	push   %es
     6ae:	00 06                	add    %al,(%esi)
     6b0:	7b 03                	jnp    6b5 <mb2_hdr_begin-0xff94b>
     6b2:	00 00                	add    %al,(%eax)
     6b4:	0a 18                	or     (%eax),%bl
     6b6:	08 f4                	or     %dh,%ah
     6b8:	00 00                	add    %al,(%eax)
     6ba:	00 02                	add    %al,(%edx)
     6bc:	e2 03                	loop   6c1 <mb2_hdr_begin-0xff93f>
     6be:	00 00                	add    %al,(%eax)
     6c0:	1a 54 00 00          	sbb    0x0(%eax,%eax,1),%dl
     6c4:	00 00                	add    %al,(%eax)
     6c6:	02 d7                	add    %bh,%dl
     6c8:	03 00                	add    (%eax),%eax
     6ca:	00 1b                	add    %bl,(%ebx)
     6cc:	6d                   	insl   (%dx),%es:(%edi)
     6cd:	00 00                	add    %al,(%eax)
     6cf:	00 02                	add    %al,(%edx)
     6d1:	00 0f                	add    %cl,(%edi)
     6d3:	80 03 00             	addb   $0x0,(%ebx)
     6d6:	00 01                	add    %al,(%ecx)
     6d8:	0a 14 d1             	or     (%ecx,%edx,8),%dl
     6db:	00 00                	add    %al,(%eax)
     6dd:	00 05 03 48 30 10    	add    %al,0x10304803
     6e3:	00 10                	add    %dl,(%eax)
     6e5:	98                   	cwtl
     6e6:	00 00                	add    %al,(%eax)
     6e8:	00 16                	add    %dl,(%esi)
     6ea:	01 00                	add    %eax,(%eax)
     6ec:	00 11                	add    %dl,(%ecx)
     6ee:	66 00 00             	data16 add %al,(%eax)
     6f1:	00 02                	add    %al,(%edx)
     6f3:	00 12                	add    %dl,(%edx)
     6f5:	67 64 74 00          	addr16 fs je 6f9 <mb2_hdr_begin-0xff907>
     6f9:	01 0d 12 06 01 00    	add    %ecx,0x10612
     6ff:	00 05 03 30 30 10    	add    %al,0x10303003
     705:	00 07                	add    %al,(%edi)
     707:	c4 03                	les    (%ebx),%eax
     709:	00 00                	add    %al,(%eax)
     70b:	66 34 01             	data16 xor $0x1,%al
     70e:	00 00                	add    %al,(%eax)
     710:	04 00                	add    $0x0,%al
     712:	13 fd                	adc    %ebp,%edi
     714:	03 00                	add    (%eax),%eax
     716:	00 04 0c             	add    %al,(%esp,%ecx,1)
     719:	05 7f 00 00 00       	add    $0x7f,%eax
     71e:	4b                   	dec    %ebx
     71f:	01 00                	add    %eax,(%eax)
     721:	00 14 50             	add    %dl,(%eax,%edx,2)
     724:	01 00                	add    %eax,(%eax)
     726:	00 04 00             	add    %al,(%eax,%eax,1)
     729:	08 5c 01 00          	or     %bl,0x0(%ecx,%eax,1)
     72d:	00 15 4b 01 00 00    	add    %dl,0x14b
     733:	01 01                	add    %eax,(%ecx)
     735:	06                   	push   %es
     736:	74 01                	je     739 <mb2_hdr_begin-0xff8c7>
     738:	00 00                	add    %al,(%eax)
     73a:	16                   	push   %ss
     73b:	55                   	push   %ebp
     73c:	01 00                	add    %eax,(%eax)
     73e:	00 17                	add    %dl,(%edi)
     740:	f4                   	hlt
     741:	03 00                	add    (%eax),%eax
     743:	00 01                	add    %al,(%ecx)
     745:	32 06                	xor    (%esi),%al
     747:	10 04 10             	adc    %al,(%eax,%edx,1)
     74a:	00 91 00 00 00 01    	add    %dl,0x1000000(%ecx)
     750:	9c                   	pushf
     751:	1a 02                	sbb    (%edx),%al
     753:	00 00                	add    %al,(%eax)
     755:	05 6f 03 00 00       	add    $0x36f,%eax
     75a:	35 98 00 00 00       	xor    $0x98,%eax
     75f:	65 01 00             	add    %eax,%gs:(%eax)
     762:	00 63 01             	add    %ah,0x1(%ebx)
     765:	00 00                	add    %al,(%eax)
     767:	05 04 04 00 00       	add    $0x404,%eax
     76c:	3d 98 00 00 00       	cmp    $0x98,%eax
     771:	7e 01                	jle    774 <mb2_hdr_begin-0xff88c>
     773:	00 00                	add    %al,(%eax)
     775:	7c 01                	jl     778 <mb2_hdr_begin-0xff888>
     777:	00 00                	add    %al,(%eax)
     779:	05 e8 03 00 00       	add    $0x3e8,%eax
     77e:	46                   	inc    %esi
     77f:	98                   	cwtl
     780:	00 00                	add    %al,(%eax)
     782:	00 99 01 00 00 97    	add    %bl,-0x68ffffff(%ecx)
     788:	01 00                	add    %eax,(%eax)
     78a:	00 07                	add    %al,(%edi)
     78c:	c4 03                	les    (%ebx),%eax
     78e:	00 00                	add    %al,(%eax)
     790:	66 b9 01 00          	mov    $0x1,%cx
     794:	00 04 00             	add    %al,(%eax,%eax,1)
     797:	18 23                	sbb    %ah,(%ebx)
     799:	02 00                	add    (%eax),%al
     79b:	00 10                	add    %dl,(%eax)
     79d:	04 10                	add    $0x10,%al
     79f:	00 03                	add    %al,(%ebx)
     7a1:	81 00 00 00 01 3b    	addl   $0x3b010000,(%eax)
     7a7:	05 e9 01 00 00       	add    $0x1e9,%eax
     7ac:	09 30                	or     %esi,(%eax)
     7ae:	02 00                	add    (%eax),%al
     7b0:	00 b4 01 00 00 b2 01 	add    %dh,0x1b20000(%ecx,%eax,1)
     7b7:	00 00                	add    %al,(%eax)
     7b9:	09 3a                	or     %edi,(%edx)
     7bb:	02 00                	add    (%eax),%al
     7bd:	00 c3                	add    %al,%bl
     7bf:	01 00                	add    %eax,(%eax)
     7c1:	00 bf 01 00 00 00    	add    %bh,0x1(%edi)
     7c7:	19 1a                	sbb    %ebx,(%edx)
     7c9:	02 00                	add    (%eax),%al
     7cb:	00 91 04 10 00 02    	add    %dl,0x2001004(%ecx)
     7d1:	91                   	xchg   %eax,%ecx
     7d2:	04 10                	add    $0x10,%al
     7d4:	00 07                	add    %al,(%edi)
     7d6:	00 00                	add    %al,(%eax)
     7d8:	00 01                	add    %al,(%ecx)
     7da:	69 05 0a 7d 04 10 00 	imul   $0x13400,0x10047d0a,%eax
     7e1:	34 01 00 
     7e4:	00 0a                	add    %cl,(%edx)
     7e6:	91                   	xchg   %eax,%ecx
     7e7:	04 10                	add    $0x10,%al
     7e9:	00 34 01             	add    %dh,(%ecx,%eax,1)
     7ec:	00 00                	add    %al,(%eax)
     7ee:	1a a1 04 10 00 28    	sbb    0x28001004(%ecx),%ah
     7f4:	01 00                	add    %eax,(%eax)
     7f6:	00 00                	add    %al,(%eax)
     7f8:	1b ce                	sbb    %esi,%ecx
     7fa:	03 00                	add    (%eax),%eax
     7fc:	00 01                	add    %al,(%ecx)
     7fe:	2c 06                	sub    $0x6,%al
     800:	01 1c 99             	add    %ebx,(%ecx,%ebx,4)
     803:	03 00                	add    (%eax),%eax
     805:	00 01                	add    %al,(%ecx)
     807:	10 06                	adc    %al,(%esi)
     809:	01 45 02             	add    %eax,0x2(%ebp)
     80c:	00 00                	add    %al,(%eax)
     80e:	0b b1 03 00 00 1e    	or     0x1e000003(%ecx),%esi
     814:	45                   	inc    %ebp
     815:	02 00                	add    (%eax),%al
     817:	00 0b                	add    %cl,(%ebx)
     819:	10 04 00             	adc    %al,(%eax,%eax,1)
     81c:	00 37                	add    %dh,(%edi)
     81e:	98                   	cwtl
     81f:	00 00                	add    %al,(%eax)
     821:	00 00                	add    %al,(%eax)
     823:	08 42 00             	or     %al,0x0(%edx)
     826:	00 00                	add    %al,(%eax)
     828:	1d 23 02 00 00       	sbb    $0x223,%eax
     82d:	d0 03                	rolb   $1,(%ebx)
     82f:	10 00                	adc    %al,(%eax)
     831:	2f                   	das
     832:	00 00                	add    %al,(%eax)
     834:	00 01                	add    %al,(%ecx)
     836:	9c                   	pushf
     837:	6e                   	outsb  %ds:(%esi),(%dx)
     838:	02 00                	add    (%eax),%al
     83a:	00 0c 30             	add    %cl,(%eax,%esi,1)
     83d:	02 00                	add    (%eax),%al
     83f:	00 02                	add    %al,(%edx)
     841:	91                   	xchg   %eax,%ecx
     842:	00 0c 3a             	add    %cl,(%edx,%edi,1)
     845:	02 00                	add    (%eax),%al
     847:	00 02                	add    %al,(%edx)
     849:	91                   	xchg   %eax,%ecx
     84a:	04 00                	add    $0x0,%al
     84c:	1e                   	push   %ds
     84d:	1a 02                	sbb    (%edx),%al
     84f:	00 00                	add    %al,(%eax)
     851:	00 04 10             	add    %al,(%eax,%edx,1)
     854:	00 08                	add    %cl,(%eax)
     856:	00 00                	add    %al,(%eax)
     858:	00 01                	add    %al,(%ecx)
     85a:	9c                   	pushf
     85b:	00 3f                	add    %bh,(%edi)
     85d:	03 00                	add    (%eax),%eax
     85f:	00 05 00 01 04 4c    	add    %al,0x4c040100
     865:	04 00                	add    $0x0,%al
     867:	00 0b                	add    %cl,(%ebx)
     869:	a2 00 00 00 1d       	mov    %al,0x1d000000
     86e:	07                   	pop    %es
     86f:	01 00                	add    %eax,(%eax)
     871:	00 00                	add    %al,(%eax)
     873:	00 00                	add    %al,(%eax)
     875:	00 b0 04 10 00 e9    	add    %dh,-0x16ffeffc(%eax)
     87b:	01 00                	add    %eax,(%eax)
     87d:	00 0f                	add    %cl,(%edi)
     87f:	05 00 00 02 01       	add    $0x1020000,%eax
     884:	06                   	push   %es
     885:	6d                   	insl   (%dx),%es:(%edi)
     886:	01 00                	add    %eax,(%eax)
     888:	00 02                	add    %al,(%edx)
     88a:	02 05 e1 02 00 00    	add    0x2e1,%al
     890:	02 04 05 ce 02 00 00 	add    0x2ce(,%eax,1),%al
     897:	02 08                	add    (%eax),%cl
     899:	05 c9 02 00 00       	add    $0x2c9,%eax
     89e:	05 51 02 00 00       	add    $0x251,%eax
     8a3:	2e 18 4d 00          	sbb    %cl,%cs:0x0(%ebp)
     8a7:	00 00                	add    %al,(%eax)
     8a9:	02 01                	add    (%ecx),%al
     8ab:	08 6b 01             	or     %ch,0x1(%ebx)
     8ae:	00 00                	add    %al,(%eax)
     8b0:	05 eb 02 00 00       	add    $0x2eb,%eax
     8b5:	31 19                	xor    %ebx,(%ecx)
     8b7:	5f                   	pop    %edi
     8b8:	00 00                	add    %al,(%eax)
     8ba:	00 02                	add    %al,(%edx)
     8bc:	02 07                	add    (%edi),%al
     8be:	89 01                	mov    %eax,(%ecx)
     8c0:	00 00                	add    %al,(%eax)
     8c2:	05 ac 04 00 00       	add    $0x4ac,%eax
     8c7:	34 19                	xor    $0x19,%al
     8c9:	71 00                	jno    8cb <mb2_hdr_begin-0xff735>
     8cb:	00 00                	add    %al,(%eax)
     8cd:	02 04 07             	add    (%edi,%eax,1),%al
     8d0:	3f                   	aas
     8d1:	02 00                	add    (%eax),%al
     8d3:	00 02                	add    %al,(%edx)
     8d5:	08 07                	or     %al,(%edi)
     8d7:	3a 02                	cmp    (%edx),%al
     8d9:	00 00                	add    %al,(%eax)
     8db:	0c 04                	or     $0x4,%al
     8dd:	05 69 6e 74 00       	add    $0x746e69,%eax
     8e2:	02 04 07             	add    (%edi,%eax,1),%al
     8e5:	44                   	inc    %esp
     8e6:	02 00                	add    (%eax),%al
     8e8:	00 05 85 03 00 00    	add    %al,0x385
     8ee:	56                   	push   %esi
     8ef:	1a 71 00             	sbb    0x0(%ecx),%dh
     8f2:	00 00                	add    %al,(%eax)
     8f4:	08 91 04 00 00 08    	or     %dl,0x8000004(%ecx)
     8fa:	0c e0                	or     $0xe0,%al
     8fc:	00 00                	add    %al,(%eax)
     8fe:	00 03                	add    %al,(%ebx)
     900:	17                   	pop    %ss
     901:	04 00                	add    $0x0,%al
     903:	00 0e                	add    %cl,(%esi)
     905:	0e                   	push   %cs
     906:	54                   	push   %esp
     907:	00 00                	add    %al,(%eax)
     909:	00 00                	add    %al,(%eax)
     90b:	03 57 04             	add    0x4(%edi),%edx
     90e:	00 00                	add    %al,(%eax)
     910:	0f 0e                	femms
     912:	54                   	push   %esp
     913:	00 00                	add    %al,(%eax)
     915:	00 02                	add    %al,(%edx)
     917:	03 60 04             	add    0x4(%eax),%esp
     91a:	00 00                	add    %al,(%eax)
     91c:	10 0d 42 00 00 00    	adc    %cl,0x42
     922:	04 03                	add    $0x3,%al
     924:	3e 04 00             	ds add $0x0,%al
     927:	00 11                	add    %dl,(%ecx)
     929:	0d 42 00 00 00       	or     $0x42,%eax
     92e:	05 03 20 04 00       	add    $0x42003,%eax
     933:	00 12                	add    %dl,(%edx)
     935:	0e                   	push   %cs
     936:	54                   	push   %esp
     937:	00 00                	add    %al,(%eax)
     939:	00 06                	add    %al,(%esi)
     93b:	00 08                	add    %cl,(%eax)
     93d:	65 04 00             	gs add $0x0,%al
     940:	00 06                	add    %al,(%esi)
     942:	17                   	pop    %ss
     943:	04 01                	add    $0x1,%al
     945:	00 00                	add    %al,(%eax)
     947:	03 e2                	add    %edx,%esp
     949:	03 00                	add    (%eax),%eax
     94b:	00 19                	add    %bl,(%ecx)
     94d:	0e                   	push   %cs
     94e:	54                   	push   %esp
     94f:	00 00                	add    %al,(%eax)
     951:	00 00                	add    %al,(%eax)
     953:	03 d7                	add    %edi,%edx
     955:	03 00                	add    (%eax),%eax
     957:	00 1a                	add    %bl,(%edx)
     959:	0e                   	push   %cs
     95a:	66 00 00             	data16 add %al,(%eax)
     95d:	00 02                	add    %al,(%edx)
     95f:	00 0d 6a 04 00 00    	add    %cl,0x46a
     965:	01 04 0d e0 00 00 00 	add    %eax,0xe0(,%ecx,1)
     96c:	05 03 60 38 10       	add    $0x10386003,%eax
     971:	00 0e                	add    %cl,(%esi)
     973:	98                   	cwtl
     974:	00 00                	add    %al,(%eax)
     976:	00 26                	add    %ah,(%esi)
     978:	01 00                	add    %eax,(%eax)
     97a:	00 0f                	add    %cl,(%edi)
     97c:	71 00                	jno    97e <mb2_hdr_begin-0xff682>
     97e:	00 00                	add    %al,(%eax)
     980:	ff 00                	incl   (%eax)
     982:	10 69 64             	adc    %ch,0x64(%ecx)
     985:	74 00                	je     987 <mb2_hdr_begin-0xff679>
     987:	01 07                	add    %eax,(%edi)
     989:	1c 16                	sbb    $0x16,%al
     98b:	01 00                	add    %eax,(%eax)
     98d:	00 05 03 60 30 10    	add    %al,0x10306003
     993:	00 09                	add    %cl,(%ecx)
     995:	b5 04                	mov    $0x4,%ch
     997:	00 00                	add    %al,(%eax)
     999:	1e                   	push   %ds
     99a:	09 6f 04             	or     %ebp,0x4(%edi)
     99d:	00 00                	add    %al,(%eax)
     99f:	1d 11 fd 03 00       	sbb    $0x3fd11,%eax
     9a4:	00 04 0c             	add    %al,(%esp,%ecx,1)
     9a7:	05 7f 00 00 00       	add    $0x7f,%eax
     9ac:	5b                   	pop    %ebx
     9ad:	01 00                	add    %eax,(%eax)
     9af:	00 12                	add    %dl,(%edx)
     9b1:	61                   	popa
     9b2:	01 00                	add    %eax,(%eax)
     9b4:	00 13                	add    %dl,(%ebx)
     9b6:	00 14 04             	add    %dl,(%esp,%eax,1)
     9b9:	6d                   	insl   (%dx),%es:(%edi)
     9ba:	01 00                	add    %eax,(%eax)
     9bc:	00 15 5b 01 00 00    	add    %dl,0x15b
     9c2:	02 01                	add    (%ecx),%al
     9c4:	06                   	push   %es
     9c5:	74 01                	je     9c8 <mb2_hdr_begin-0xff638>
     9c7:	00 00                	add    %al,(%eax)
     9c9:	16                   	push   %ss
     9ca:	66 01 00             	add    %ax,(%eax)
     9cd:	00 17                	add    %dl,(%edi)
     9cf:	4e                   	dec    %esi
     9d0:	04 00                	add    $0x0,%al
     9d2:	00 01                	add    %al,(%ecx)
     9d4:	27                   	daa
     9d5:	06                   	push   %es
     9d6:	60                   	pusha
     9d7:	05 10 00 39 01       	add    $0x1390010,%eax
     9dc:	00 00                	add    %al,(%eax)
     9de:	01 9c 9d 02 00 00 18 	add    %ebx,0x18000002(%ebp,%ebx,4)
     9e5:	95                   	xchg   %eax,%ebp
     9e6:	00 00                	add    %al,(%eax)
     9e8:	00 87 02 00 00 19    	add    %al,0x19000002(%edi)
     9ee:	a5                   	movsl  %ds:(%esi),%es:(%edi)
     9ef:	04 00                	add    $0x0,%al
     9f1:	00 01                	add    %al,(%ecx)
     9f3:	2b 0e                	sub    (%esi),%ecx
     9f5:	7f 00                	jg     9f7 <mb2_hdr_begin-0xff609>
     9f7:	00 00                	add    %al,(%eax)
     9f9:	ff 01                	incl   (%ecx)
     9fb:	00 00                	add    %al,(%eax)
     9fd:	f1                   	int1
     9fe:	01 00                	add    %eax,(%eax)
     a00:	00 0a                	add    %cl,(%edx)
     a02:	a6                   	cmpsb  %es:(%edi),%ds:(%esi)
     a03:	02 00                	add    (%eax),%al
     a05:	00 a5 05 10 00 06    	add    %ah,0x6001005(%ebp)
     a0b:	af                   	scas   %es:(%edi),%eax
     a0c:	00 00                	add    %al,(%eax)
     a0e:	00 37                	add    %dh,(%edi)
     a10:	ee                   	out    %al,(%dx)
     a11:	01 00                	add    %eax,(%eax)
     a13:	00 01                	add    %al,(%ecx)
     a15:	b3 02                	mov    $0x2,%bl
     a17:	00 00                	add    %al,(%eax)
     a19:	39 02                	cmp    %eax,(%edx)
     a1b:	00 00                	add    %al,(%eax)
     a1d:	37                   	aaa
     a1e:	02 00                	add    (%eax),%al
     a20:	00 06                	add    %al,(%esi)
     a22:	bd 02 00 00 01       	mov    $0x1000002,%ebp
     a27:	c7 02 00 00 45 02    	movl   $0x2450000,(%edx)
     a2d:	00 00                	add    %al,(%eax)
     a2f:	43                   	inc    %ebx
     a30:	02 00                	add    (%eax),%al
     a32:	00 01                	add    %al,(%ecx)
     a34:	d3 02                	roll   %cl,(%edx)
     a36:	00 00                	add    %al,(%eax)
     a38:	50                   	push   %eax
     a39:	02 00                	add    (%eax),%al
     a3b:	00 4e 02             	add    %cl,0x2(%esi)
     a3e:	00 00                	add    %al,(%eax)
     a40:	04 b7                	add    $0xb7,%al
     a42:	05 10 00 44 01       	add    $0x1440010,%eax
     a47:	00 00                	add    %al,(%eax)
     a49:	00 1a                	add    %bl,(%edx)
     a4b:	a6                   	cmpsb  %es:(%edi),%ds:(%esi)
     a4c:	02 00                	add    (%eax),%al
     a4e:	00 89 05 10 00 01    	add    %cl,0x1001005(%ecx)
     a54:	89 05 10 00 1c 00    	mov    %eax,0x1c0010
     a5a:	00 00                	add    %al,(%eax)
     a5c:	01 31                	add    %esi,(%ecx)
     a5e:	0d 34 02 00 00       	or     $0x234,%eax
     a63:	01 b3 02 00 00 5c    	add    %esi,0x5c000002(%ebx)
     a69:	02 00                	add    (%eax),%al
     a6b:	00 5a 02             	add    %bl,0x2(%edx)
     a6e:	00 00                	add    %al,(%eax)
     a70:	06                   	push   %es
     a71:	bd 02 00 00 01       	mov    $0x1000002,%ebp
     a76:	c7 02 00 00 68 02    	movl   $0x2680000,(%edx)
     a7c:	00 00                	add    %al,(%eax)
     a7e:	66 02 00             	data16 add (%eax),%al
     a81:	00 01                	add    %al,(%ecx)
     a83:	d3 02                	roll   %cl,(%edx)
     a85:	00 00                	add    %al,(%eax)
     a87:	73 02                	jae    a8b <mb2_hdr_begin-0xff575>
     a89:	00 00                	add    %al,(%eax)
     a8b:	71 02                	jno    a8f <mb2_hdr_begin-0xff571>
     a8d:	00 00                	add    %al,(%eax)
     a8f:	00 0a                	add    %cl,(%edx)
     a91:	a6                   	cmpsb  %es:(%edi),%ds:(%esi)
     a92:	02 00                	add    (%eax),%al
     a94:	00 59 06             	add    %bl,0x6(%ecx)
     a97:	10 00                	adc    %al,(%eax)
     a99:	01 ba 00 00 00 3d    	add    %edi,0x3d000000(%edx)
     a9f:	7d 02                	jge    aa3 <mb2_hdr_begin-0xff55d>
     aa1:	00 00                	add    %al,(%eax)
     aa3:	01 b3 02 00 00 7f    	add    %esi,0x7f000002(%ebx)
     aa9:	02 00                	add    (%eax),%al
     aab:	00 7d 02             	add    %bh,0x2(%ebp)
     aae:	00 00                	add    %al,(%eax)
     ab0:	06                   	push   %es
     ab1:	bd 02 00 00 01       	mov    $0x1000002,%ebp
     ab6:	c7 02 00 00 89 02    	movl   $0x2890000,(%edx)
     abc:	00 00                	add    %al,(%eax)
     abe:	87 02                	xchg   %eax,(%edx)
     ac0:	00 00                	add    %al,(%eax)
     ac2:	01 d3                	add    %edx,%ebx
     ac4:	02 00                	add    (%eax),%al
     ac6:	00 94 02 00 00 92 02 	add    %dl,0x2920000(%edx,%eax,1)
     acd:	00 00                	add    %al,(%eax)
     acf:	04 70                	add    $0x70,%al
     ad1:	06                   	push   %es
     ad2:	10 00                	adc    %al,(%eax)
     ad4:	44                   	inc    %esp
     ad5:	01 00                	add    %eax,(%eax)
     ad7:	00 00                	add    %al,(%eax)
     ad9:	04 e0                	add    $0xe0,%al
     adb:	05 10 00 44 01       	add    $0x1440010,%eax
     ae0:	00 00                	add    %al,(%eax)
     ae2:	00 1b                	add    %bl,(%ebx)
     ae4:	9d                   	popf
     ae5:	02 00                	add    (%eax),%al
     ae7:	00 3c 06             	add    %bh,(%esi,%eax,1)
     aea:	10 00                	adc    %al,(%eax)
     aec:	01 3c 06             	add    %edi,(%esi,%eax,1)
     aef:	10 00                	adc    %al,(%eax)
     af1:	07                   	pop    %es
     af2:	00 00                	add    %al,(%eax)
     af4:	00 01                	add    %al,(%ecx)
     af6:	45                   	inc    %ebp
     af7:	05 00 1c 35 04       	add    $0x4351c00,%eax
     afc:	00 00                	add    %al,(%eax)
     afe:	01 21                	add    %esp,(%ecx)
     b00:	06                   	push   %es
     b01:	01 1d 29 04 00 00    	add    %ebx,0x429
     b07:	01 0a                	add    %ecx,(%edx)
     b09:	06                   	push   %es
     b0a:	01 de                	add    %ebx,%esi
     b0c:	02 00                	add    (%eax),%al
     b0e:	00 07                	add    %al,(%edi)
     b10:	a5                   	movsl  %ds:(%esi),%es:(%edi)
     b11:	04 00                	add    $0x0,%al
     b13:	00 16                	add    %dl,(%esi)
     b15:	7f 00                	jg     b17 <mb2_hdr_begin-0xff4e9>
     b17:	00 00                	add    %al,(%eax)
     b19:	07                   	pop    %es
     b1a:	d7                   	xlat   %ds:(%ebx)
     b1b:	03 00                	add    (%eax),%eax
     b1d:	00 27                	add    %ah,(%edi)
     b1f:	66 00 00             	data16 add %al,(%eax)
     b22:	00 1e                	add    %bl,(%esi)
     b24:	73 65                	jae    b8b <mb2_hdr_begin-0xff475>
     b26:	6c                   	insb   (%dx),%es:(%edi)
     b27:	00 01                	add    %al,(%ecx)
     b29:	0a 36                	or     (%esi),%dh
     b2b:	54                   	push   %esp
     b2c:	00 00                	add    %al,(%eax)
     b2e:	00 07                	add    %al,(%edi)
     b30:	87 04 00             	xchg   %eax,(%eax,%eax,1)
     b33:	00 43 42             	add    %al,0x42(%ebx)
     b36:	00 00                	add    %al,(%eax)
     b38:	00 00                	add    %al,(%eax)
     b3a:	1f                   	pop    %ds
     b3b:	a6                   	cmpsb  %es:(%edi),%ds:(%esi)
     b3c:	02 00                	add    (%eax),%al
     b3e:	00 b0 04 10 00 91    	add    %dh,-0x6effeffc(%eax)
     b44:	00 00                	add    %al,(%eax)
     b46:	00 01                	add    %al,(%ecx)
     b48:	9c                   	pushf
     b49:	33 03                	xor    (%ebx),%eax
     b4b:	00 00                	add    %al,(%eax)
     b4d:	20 b3 02 00 00 02    	and    %dh,0x2000002(%ebx)
     b53:	91                   	xchg   %eax,%ecx
     b54:	00 01                	add    %al,(%ecx)
     b56:	bd 02 00 00 a4       	mov    $0xa4000002,%ebp
     b5b:	02 00                	add    (%eax),%al
     b5d:	00 9e 02 00 00 01    	add    %bl,0x1000002(%esi)
     b63:	c7 02 00 00 be 02    	movl   $0x2be0000,(%edx)
     b69:	00 00                	add    %al,(%eax)
     b6b:	b8 02 00 00 01       	mov    $0x1000002,%eax
     b70:	d3 02                	roll   %cl,(%edx)
     b72:	00 00                	add    %al,(%eax)
     b74:	d8 02                	fadds  (%edx)
     b76:	00 00                	add    %al,(%eax)
     b78:	d2 02                	rolb   %cl,(%edx)
     b7a:	00 00                	add    %al,(%eax)
     b7c:	04 19                	add    $0x19,%al
     b7e:	05 10 00 44 01       	add    $0x1440010,%eax
     b83:	00 00                	add    %al,(%eax)
     b85:	04 39                	add    $0x39,%al
     b87:	05 10 00 44 01       	add    $0x1440010,%eax
     b8c:	00 00                	add    %al,(%eax)
     b8e:	00 21                	add    %ah,(%ecx)
     b90:	9d                   	popf
     b91:	02 00                	add    (%eax),%al
     b93:	00 50 05             	add    %dl,0x5(%eax)
     b96:	10 00                	adc    %al,(%eax)
     b98:	08 00                	or     %al,(%eax)
     b9a:	00 00                	add    %al,(%eax)
     b9c:	01 9c 00 d6 00 00 00 	add    %ebx,0xd6(%eax,%eax,1)
     ba3:	05 00 01 04 39       	add    $0x39040100,%eax
     ba8:	06                   	push   %es
     ba9:	00 00                	add    %al,(%eax)
     bab:	02 a2 00 00 00 1d    	add    0x1d000000(%edx),%ah
     bb1:	43                   	inc    %ebx
     bb2:	01 00                	add    %eax,(%eax)
     bb4:	00 00                	add    %al,(%eax)
     bb6:	00 00                	add    %al,(%eax)
     bb8:	00 a0 06 10 00 43    	add    %ah,0x43001006(%eax)
     bbe:	00 00                	add    %al,(%eax)
     bc0:	00 5f 07             	add    %bl,0x7(%edi)
     bc3:	00 00                	add    %al,(%eax)
     bc5:	01 01                	add    %eax,(%ecx)
     bc7:	06                   	push   %es
     bc8:	6d                   	insl   (%dx),%es:(%edi)
     bc9:	01 00                	add    %eax,(%eax)
     bcb:	00 01                	add    %al,(%ecx)
     bcd:	02 05 e1 02 00 00    	add    0x2e1,%al
     bd3:	01 04 05 ce 02 00 00 	add    %eax,0x2ce(,%eax,1)
     bda:	01 08                	add    %ecx,(%eax)
     bdc:	05 c9 02 00 00       	add    $0x2c9,%eax
     be1:	01 01                	add    %eax,(%ecx)
     be3:	08 6b 01             	or     %ch,0x1(%ebx)
     be6:	00 00                	add    %al,(%eax)
     be8:	01 02                	add    %eax,(%edx)
     bea:	07                   	pop    %es
     beb:	89 01                	mov    %eax,(%ecx)
     bed:	00 00                	add    %al,(%eax)
     bef:	03 ac 04 00 00 03 34 	add    0x34030000(%esp,%eax,1),%ebp
     bf6:	19 61 00             	sbb    %esp,0x0(%ecx)
     bf9:	00 00                	add    %al,(%eax)
     bfb:	04 50                	add    $0x50,%al
     bfd:	00 00                	add    %al,(%eax)
     bff:	00 01                	add    %al,(%ecx)
     c01:	04 07                	add    $0x7,%al
     c03:	3f                   	aas
     c04:	02 00                	add    (%eax),%al
     c06:	00 01                	add    %al,(%ecx)
     c08:	08 07                	or     %al,(%edi)
     c0a:	3a 02                	cmp    (%edx),%al
     c0c:	00 00                	add    %al,(%eax)
     c0e:	05 04 05 69 6e       	add    $0x6e690504,%eax
     c13:	74 00                	je     c15 <mb2_hdr_begin-0xff3eb>
     c15:	01 04 07             	add    %eax,(%edi,%eax,1)
     c18:	44                   	inc    %esp
     c19:	02 00                	add    (%eax),%al
     c1b:	00 06                	add    %al,(%esi)
     c1d:	db 04 00             	fildl  (%eax,%eax,1)
     c20:	00 01                	add    %al,(%ecx)
     c22:	04 13                	add    $0x13,%al
     c24:	5c                   	pop    %esp
     c25:	00 00                	add    %al,(%eax)
     c27:	00 05 03 68 38 10    	add    %al,0x10386803
     c2d:	00 07                	add    %al,(%edi)
     c2f:	fd                   	std
     c30:	03 00                	add    (%eax),%eax
     c32:	00 02                	add    %al,(%edx)
     c34:	0c 05                	or     $0x5,%al
     c36:	6f                   	outsl  %ds:(%esi),(%dx)
     c37:	00 00                	add    %al,(%eax)
     c39:	00 a6 00 00 00 08    	add    %ah,0x8000000(%esi)
     c3f:	ac                   	lods   %ds:(%esi),%al
     c40:	00 00                	add    %al,(%eax)
     c42:	00 09                	add    %cl,(%ecx)
     c44:	00 0a                	add    %cl,(%edx)
     c46:	04 b8                	add    $0xb8,%al
     c48:	00 00                	add    %al,(%eax)
     c4a:	00 0b                	add    %cl,(%ebx)
     c4c:	a6                   	cmpsb  %es:(%edi),%ds:(%esi)
     c4d:	00 00                	add    %al,(%eax)
     c4f:	00 01                	add    %al,(%ecx)
     c51:	01 06                	add    %eax,(%esi)
     c53:	74 01                	je     c56 <mb2_hdr_begin-0xff3aa>
     c55:	00 00                	add    %al,(%eax)
     c57:	0c b1                	or     $0xb1,%al
     c59:	00 00                	add    %al,(%eax)
     c5b:	00 0d ce 04 00 00    	add    %cl,0x4ce
     c61:	01 07                	add    %eax,(%edi)
     c63:	06                   	push   %es
     c64:	a0 06 10 00 43       	mov    0x43001006,%al
     c69:	00 00                	add    %al,(%eax)
     c6b:	00 01                	add    %al,(%ecx)
     c6d:	9c                   	pushf
     c6e:	0e                   	push   %cs
     c6f:	de 06                	fiadds (%esi)
     c71:	10 00                	adc    %al,(%eax)
     c73:	8f 00                	pop    (%eax)
     c75:	00 00                	add    %al,(%eax)
     c77:	00 00                	add    %al,(%eax)
     c79:	cd 02                	int    $0x2
     c7b:	00 00                	add    %al,(%eax)
     c7d:	05 00 01 04 e6       	add    $0xe6040100,%eax
     c82:	06                   	push   %es
     c83:	00 00                	add    %al,(%eax)
     c85:	0d a2 00 00 00       	or     $0xa2,%eax
     c8a:	1d 63 01 00 00       	sbb    $0x163,%eax
     c8f:	00 00                	add    %al,(%eax)
     c91:	00 00                	add    %al,(%eax)
     c93:	f0 06                	lock push %es
     c95:	10 00                	adc    %al,(%eax)
     c97:	a0 01 00 00 db       	mov    0xdb000001,%al
     c9c:	07                   	pop    %es
     c9d:	00 00                	add    %al,(%eax)
     c9f:	01 01                	add    %eax,(%ecx)
     ca1:	06                   	push   %es
     ca2:	6d                   	insl   (%dx),%es:(%edi)
     ca3:	01 00                	add    %eax,(%eax)
     ca5:	00 01                	add    %al,(%ecx)
     ca7:	02 05 e1 02 00 00    	add    0x2e1,%al
     cad:	01 04 05 ce 02 00 00 	add    %eax,0x2ce(,%eax,1)
     cb4:	01 08                	add    %ecx,(%eax)
     cb6:	05 c9 02 00 00       	add    $0x2c9,%eax
     cbb:	06                   	push   %es
     cbc:	51                   	push   %ecx
     cbd:	02 00                	add    (%eax),%al
     cbf:	00 02                	add    %al,(%edx)
     cc1:	2e 18 4e 00          	sbb    %cl,%cs:0x0(%esi)
     cc5:	00 00                	add    %al,(%eax)
     cc7:	01 01                	add    %eax,(%ecx)
     cc9:	08 6b 01             	or     %ch,0x1(%ebx)
     ccc:	00 00                	add    %al,(%eax)
     cce:	06                   	push   %es
     ccf:	eb 02                	jmp    cd3 <mb2_hdr_begin-0xff32d>
     cd1:	00 00                	add    %al,(%eax)
     cd3:	02 31                	add    (%ecx),%dh
     cd5:	19 61 00             	sbb    %esp,0x0(%ecx)
     cd8:	00 00                	add    %al,(%eax)
     cda:	01 02                	add    %eax,(%edx)
     cdc:	07                   	pop    %es
     cdd:	89 01                	mov    %eax,(%ecx)
     cdf:	00 00                	add    %al,(%eax)
     ce1:	01 04 07             	add    %eax,(%edi,%eax,1)
     ce4:	3f                   	aas
     ce5:	02 00                	add    (%eax),%al
     ce7:	00 01                	add    %al,(%ecx)
     ce9:	08 07                	or     %al,(%edi)
     ceb:	3a 02                	cmp    (%edx),%al
     ced:	00 00                	add    %al,(%eax)
     cef:	0e                   	push   %cs
     cf0:	04 05                	add    $0x5,%al
     cf2:	69 6e 74 00 01 04 07 	imul   $0x7040100,0x74(%esi),%ebp
     cf9:	44                   	inc    %esp
     cfa:	02 00                	add    (%eax),%al
     cfc:	00 07                	add    %al,(%edi)
     cfe:	94                   	xchg   %eax,%esp
     cff:	00 00                	add    %al,(%eax)
     d01:	00 94 00 00 00 08 68 	add    %dl,0x68080000(%eax,%eax,1)
     d08:	00 00                	add    %al,(%eax)
     d0a:	00 58 00             	add    %bl,0x0(%eax)
     d0d:	01 01                	add    %eax,(%ecx)
     d0f:	06                   	push   %es
     d10:	74 01                	je     d13 <mb2_hdr_begin-0xff2ed>
     d12:	00 00                	add    %al,(%eax)
     d14:	0f 94 00             	sete   (%eax)
     d17:	00 00                	add    %al,(%eax)
     d19:	04 1d                	add    $0x1d,%al
     d1b:	05 00 00 11 06       	add    $0x6110000,%eax
     d20:	84 00                	test   %al,(%eax)
     d22:	00 00                	add    %al,(%eax)
     d24:	05 03 20 20 10       	add    $0x10202003,%eax
     d29:	00 04 e7             	add    %al,(%edi,%eiz,8)
     d2c:	04 00                	add    $0x0,%al
     d2e:	00 5d 09             	add    %bl,0x9(%ebp)
     d31:	42                   	inc    %edx
     d32:	00 00                	add    %al,(%eax)
     d34:	00 05 03 9e 3a 10    	add    %al,0x103a9e03
     d3a:	00 10                	add    %dl,(%eax)
     d3c:	02 01                	add    (%ecx),%al
     d3e:	60                   	pusha
     d3f:	09 e2                	or     %esp,%edx
     d41:	00 00                	add    %al,(%eax)
     d43:	00 09                	add    %cl,(%ecx)
     d45:	0b 04 00             	or     (%eax,%eax,1),%eax
     d48:	00 62 42             	add    %ah,0x42(%edx)
     d4b:	00 00                	add    %al,(%eax)
     d4d:	00 00                	add    %al,(%eax)
     d4f:	09 60 05             	or     %esp,0x5(%eax)
     d52:	00 00                	add    %al,(%eax)
     d54:	63 42 00             	arpl   %eax,0x0(%edx)
     d57:	00 00                	add    %al,(%eax)
     d59:	01 00                	add    %eax,(%eax)
     d5b:	06                   	push   %es
     d5c:	3a 05 00 00 01 64    	cmp    0x64010000,%al
     d62:	03 c2                	add    %edx,%eax
     d64:	00 00                	add    %al,(%eax)
     d66:	00 07                	add    %al,(%edi)
     d68:	e2 00                	loop   d6a <mb2_hdr_begin-0xff296>
     d6a:	00 00                	add    %al,(%eax)
     d6c:	fe 00                	incb   (%eax)
     d6e:	00 00                	add    %al,(%eax)
     d70:	08 68 00             	or     %ch,0x0(%eax)
     d73:	00 00                	add    %al,(%eax)
     d75:	fe 00                	incb   (%eax)
     d77:	04 2b                	add    $0x2b,%al
     d79:	05 00 00 66 0a       	add    $0xa660000,%eax
     d7e:	ee                   	out    %al,(%dx)
     d7f:	00 00                	add    %al,(%eax)
     d81:	00 05 03 a0 38 10    	add    %al,0x1038a003
     d87:	00 04 f8             	add    %al,(%eax,%edi,8)
     d8a:	04 00                	add    $0x0,%al
     d8c:	00 67 09             	add    %ah,0x9(%edi)
     d8f:	42                   	inc    %edx
     d90:	00 00                	add    %al,(%eax)
     d92:	00 05 03 80 38 10    	add    %al,0x10388003
     d98:	00 11                	add    %dl,(%ecx)
     d9a:	69 6e 62 00 04 03 09 	imul   $0x9030400,0x62(%esi),%ebp
     da1:	42                   	inc    %edx
     da2:	00 00                	add    %al,(%eax)
     da4:	00 36                	add    %dh,(%esi)
     da6:	01 00                	add    %eax,(%eax)
     da8:	00 0a                	add    %cl,(%edx)
     daa:	55                   	push   %ebp
     dab:	00 00                	add    %al,(%eax)
     dad:	00 00                	add    %al,(%eax)
     daf:	12 fd                	adc    %ch,%bh
     db1:	03 00                	add    (%eax),%eax
     db3:	00 03                	add    %al,(%ebx)
     db5:	0c 05                	or     $0x5,%al
     db7:	76 00                	jbe    db9 <mb2_hdr_begin-0xff247>
     db9:	00 00                	add    %al,(%eax)
     dbb:	4d                   	dec    %ebp
     dbc:	01 00                	add    %eax,(%eax)
     dbe:	00 0a                	add    %cl,(%edx)
     dc0:	53                   	push   %ebx
     dc1:	01 00                	add    %eax,(%eax)
     dc3:	00 13                	add    %dl,(%ebx)
     dc5:	00 14 04             	add    %dl,(%esp,%eax,1)
     dc8:	9b                   	fwait
     dc9:	00 00                	add    %al,(%eax)
     dcb:	00 15 4d 01 00 00    	add    %dl,0x14d
     dd1:	16                   	push   %ss
     dd2:	43                   	inc    %ebx
     dd3:	05 00 00 01 8f       	add    $0x8f010000,%eax
     dd8:	06                   	push   %es
     dd9:	b0 07                	mov    $0x7,%al
     ddb:	10 00                	adc    %al,(%eax)
     ddd:	e0 00                	loopne ddf <mb2_hdr_begin-0xff221>
     ddf:	00 00                	add    %al,(%eax)
     de1:	01 9c f4 01 00 00 17 	add    %ebx,0x17000001(%esp,%esi,8)
     de8:	05 05 00 00 01       	add    $0x1000005,%eax
     ded:	91                   	xchg   %eax,%ecx
     dee:	09 76 00             	or     %esi,0x0(%esi)
     df1:	00 00                	add    %al,(%eax)
     df3:	04 03                	add    $0x3,%al
     df5:	00 00                	add    %al,(%eax)
     df7:	f8                   	clc
     df8:	02 00                	add    (%eax),%al
     dfa:	00 05 15 02 00 00    	add    %al,0x215
     e00:	cf                   	iret
     e01:	07                   	pop    %es
     e02:	10 00                	adc    %al,(%eax)
     e04:	01 e1                	add    %esp,%ecx
     e06:	00 00                	add    %al,(%eax)
     e08:	00 95 0e d8 01 00    	add    %dl,0x1d80e(%ebp)
     e0e:	00 03                	add    %al,(%ebx)
     e10:	23 02                	and    (%edx),%eax
     e12:	00 00                	add    %al,(%eax)
     e14:	33 03                	xor    (%ebx),%eax
     e16:	00 00                	add    %al,(%eax)
     e18:	2f                   	das
     e19:	03 00                	add    (%eax),%eax
     e1b:	00 05 15 02 00 00    	add    %al,0x215
     e21:	70 08                	jo     e2b <mb2_hdr_begin-0xff1d5>
     e23:	10 00                	adc    %al,(%eax)
     e25:	00 ec                	add    %ch,%ah
     e27:	00 00                	add    %al,(%eax)
     e29:	00 6a 06             	add    %ch,0x6(%edx)
     e2c:	ce                   	into
     e2d:	01 00                	add    %eax,(%eax)
     e2f:	00 03                	add    %al,(%ebx)
     e31:	23 02                	and    (%edx),%eax
     e33:	00 00                	add    %al,(%eax)
     e35:	44                   	inc    %esp
     e36:	03 00                	add    (%eax),%eax
     e38:	00 42 03             	add    %al,0x3(%edx)
     e3b:	00 00                	add    %al,(%eax)
     e3d:	02 86 08 10 00 36    	add    0x36001008(%esi),%al
     e43:	01 00                	add    %eax,(%eax)
     e45:	00 00                	add    %al,(%eax)
     e47:	02 fa                	add    %dl,%bh
     e49:	07                   	pop    %es
     e4a:	10 00                	adc    %al,(%eax)
     e4c:	36 01 00             	add    %eax,%ss:(%eax)
     e4f:	00 00                	add    %al,(%eax)
     e51:	02 bf 07 10 00 20    	add    0x20001007(%edi),%bh
     e57:	01 00                	add    %eax,(%eax)
     e59:	00 02                	add    %al,(%edx)
     e5b:	4a                   	dec    %edx
     e5c:	08 10                	or     %dl,(%eax)
     e5e:	00 36                	add    %dh,(%esi)
     e60:	01 00                	add    %eax,(%eax)
     e62:	00 02                	add    %al,(%edx)
     e64:	61                   	popa
     e65:	08 10                	or     %dl,(%eax)
     e67:	00 f4                	add    %dh,%ah
     e69:	01 00                	add    %eax,(%eax)
     e6b:	00 00                	add    %al,(%eax)
     e6d:	0b 0e                	or     (%esi),%ecx
     e6f:	05 00 00 7c 0e       	add    $0xe7c0000,%eax
     e74:	02 00                	add    (%eax),%al
     e76:	00 0e                	add    %cl,(%esi)
     e78:	02 00                	add    (%eax),%al
     e7a:	00 0c 05 05 00 00 7c 	add    %cl,0x7c000005(,%eax,1)
     e81:	19 76 00             	sbb    %esi,0x0(%esi)
     e84:	00 00                	add    %al,(%eax)
     e86:	00 01                	add    %al,(%ecx)
     e88:	01 02                	add    %eax,(%edx)
     e8a:	6b 05 00 00 0b 52 05 	imul   $0x5,0x520b0000,%eax
     e91:	00 00                	add    %al,(%eax)
     e93:	6a 0e                	push   $0xe
     e95:	02 00                	add    (%eax),%al
     e97:	00 2f                	add    %ch,(%edi)
     e99:	02 00                	add    (%eax),%al
     e9b:	00 0c 05 05 00 00 6a 	add    %cl,0x6a000005(,%eax,1)
     ea2:	18 76 00             	sbb    %dh,0x0(%esi)
     ea5:	00 00                	add    %al,(%eax)
     ea7:	00 18                	add    %bl,(%eax)
     ea9:	15 02 00 00 f0       	adc    $0xf0000002,%eax
     eae:	06                   	push   %es
     eaf:	10 00                	adc    %al,(%eax)
     eb1:	5e                   	pop    %esi
     eb2:	00 00                	add    %al,(%eax)
     eb4:	00 01                	add    %al,(%ecx)
     eb6:	9c                   	pushf
     eb7:	7f 02                	jg     ebb <mb2_hdr_begin-0xff145>
     eb9:	00 00                	add    %al,(%eax)
     ebb:	19 23                	sbb    %esp,(%ebx)
     ebd:	02 00                	add    (%eax),%al
     ebf:	00 02                	add    %al,(%edx)
     ec1:	91                   	xchg   %eax,%ecx
     ec2:	00 05 15 02 00 00    	add    %al,0x215
     ec8:	30 07                	xor    %al,(%edi)
     eca:	10 00                	adc    %al,(%eax)
     ecc:	01 d1                	add    %edx,%ecx
     ece:	00 00                	add    %al,(%eax)
     ed0:	00 6a 06             	add    %ch,0x6(%edx)
     ed3:	75 02                	jne    ed7 <mb2_hdr_begin-0xff129>
     ed5:	00 00                	add    %al,(%eax)
     ed7:	03 23                	add    (%ebx),%esp
     ed9:	02 00                	add    (%eax),%al
     edb:	00 4f 03             	add    %cl,0x3(%edi)
     ede:	00 00                	add    %al,(%eax)
     ee0:	4d                   	dec    %ebp
     ee1:	03 00                	add    (%eax),%eax
     ee3:	00 02                	add    %al,(%edx)
     ee5:	44                   	inc    %esp
     ee6:	07                   	pop    %es
     ee7:	10 00                	adc    %al,(%eax)
     ee9:	36 01 00             	add    %eax,%ss:(%eax)
     eec:	00 00                	add    %al,(%eax)
     eee:	02 24 07             	add    (%edi,%eax,1),%ah
     ef1:	10 00                	adc    %al,(%eax)
     ef3:	36 01 00             	add    %eax,%ss:(%eax)
     ef6:	00 00                	add    %al,(%eax)
     ef8:	1a f4                	sbb    %ah,%dh
     efa:	01 00                	add    %eax,(%eax)
     efc:	00 50 07             	add    %dl,0x7(%eax)
     eff:	10 00                	adc    %al,(%eax)
     f01:	5e                   	pop    %esi
     f02:	00 00                	add    %al,(%eax)
     f04:	00 01                	add    %al,(%ecx)
     f06:	9c                   	pushf
     f07:	03 02                	add    (%edx),%eax
     f09:	02 00                	add    (%eax),%al
     f0b:	00 66 03             	add    %ah,0x3(%esi)
     f0e:	00 00                	add    %al,(%eax)
     f10:	56                   	push   %esi
     f11:	03 00                	add    (%eax),%eax
     f13:	00 05 f4 01 00 00    	add    %al,0x1f4
     f19:	90                   	nop
     f1a:	07                   	pop    %es
     f1b:	10 00                	adc    %al,(%eax)
     f1d:	01 d8                	add    %ebx,%eax
     f1f:	00 00                	add    %al,(%eax)
     f21:	00 7c 06 c6          	add    %bh,-0x3a(%esi,%eax,1)
     f25:	02 00                	add    (%eax),%al
     f27:	00 03                	add    %al,(%ebx)
     f29:	02 02                	add    (%edx),%al
     f2b:	00 00                	add    %al,(%eax)
     f2d:	b1 03                	mov    $0x3,%cl
     f2f:	00 00                	add    %al,(%eax)
     f31:	af                   	scas   %es:(%edi),%eax
     f32:	03 00                	add    (%eax),%eax
     f34:	00 02                	add    %al,(%edx)
     f36:	a4                   	movsb  %ds:(%esi),%es:(%edi)
     f37:	07                   	pop    %es
     f38:	10 00                	adc    %al,(%eax)
     f3a:	36 01 00             	add    %eax,%ss:(%eax)
     f3d:	00 00                	add    %al,(%eax)
     f3f:	02 84 07 10 00 36 01 	add    0x1360010(%edi,%eax,1),%al
     f46:	00 00                	add    %al,(%eax)
     f48:	00 00                	add    %al,(%eax)
     f4a:	1c 01                	sbb    $0x1,%al
     f4c:	00 00                	add    %al,(%eax)
     f4e:	05 00 01 04 64       	add    $0x64040100,%eax
     f53:	08 00                	or     %al,(%eax)
     f55:	00 06                	add    %al,(%esi)
     f57:	a2 00 00 00 1d       	mov    %al,0x1d000000
     f5c:	86 01                	xchg   %al,(%ecx)
     f5e:	00 00                	add    %al,(%eax)
     f60:	00 00                	add    %al,(%eax)
     f62:	00 00                	add    %al,(%eax)
     f64:	d0 08                	rorb   $1,(%eax)
     f66:	10 00                	adc    %al,(%eax)
     f68:	47                   	inc    %edi
     f69:	00 00                	add    %al,(%eax)
     f6b:	00 72 09             	add    %dh,0x9(%edx)
     f6e:	00 00                	add    %al,(%eax)
     f70:	01 01                	add    %eax,(%ecx)
     f72:	06                   	push   %es
     f73:	6d                   	insl   (%dx),%es:(%edi)
     f74:	01 00                	add    %eax,(%eax)
     f76:	00 01                	add    %al,(%ecx)
     f78:	02 05 e1 02 00 00    	add    0x2e1,%al
     f7e:	01 04 05 ce 02 00 00 	add    %eax,0x2ce(,%eax,1)
     f85:	01 08                	add    %ecx,(%eax)
     f87:	05 c9 02 00 00       	add    $0x2c9,%eax
     f8c:	04 51                	add    $0x51,%al
     f8e:	02 00                	add    (%eax),%al
     f90:	00 2e                	add    %ch,(%esi)
     f92:	18 4d 00             	sbb    %cl,0x0(%ebp)
     f95:	00 00                	add    %al,(%eax)
     f97:	01 01                	add    %eax,(%ecx)
     f99:	08 6b 01             	or     %ch,0x1(%ebx)
     f9c:	00 00                	add    %al,(%eax)
     f9e:	04 eb                	add    $0xeb,%al
     fa0:	02 00                	add    (%eax),%al
     fa2:	00 31                	add    %dh,(%ecx)
     fa4:	19 5f 00             	sbb    %ebx,0x0(%edi)
     fa7:	00 00                	add    %al,(%eax)
     fa9:	01 02                	add    %eax,(%edx)
     fab:	07                   	pop    %es
     fac:	89 01                	mov    %eax,(%ecx)
     fae:	00 00                	add    %al,(%eax)
     fb0:	01 04 07             	add    %eax,(%edi,%eax,1)
     fb3:	3f                   	aas
     fb4:	02 00                	add    (%eax),%al
     fb6:	00 01                	add    %al,(%ecx)
     fb8:	08 07                	or     %al,(%edi)
     fba:	3a 02                	cmp    (%edx),%al
     fbc:	00 00                	add    %al,(%eax)
     fbe:	07                   	pop    %es
     fbf:	04 05                	add    $0x5,%al
     fc1:	69 6e 74 00 01 04 07 	imul   $0x7040100,0x74(%esi),%ebp
     fc8:	44                   	inc    %esp
     fc9:	02 00                	add    (%eax),%al
     fcb:	00 08                	add    %cl,(%eax)
     fcd:	69 6e 62 00 03 03 09 	imul   $0x9030300,0x62(%esi),%ebp
     fd4:	42                   	inc    %edx
     fd5:	00 00                	add    %al,(%eax)
     fd7:	00 98 00 00 00 03    	add    %bl,0x3000000(%eax)
     fdd:	54                   	push   %esp
     fde:	00 00                	add    %al,(%eax)
     fe0:	00 00                	add    %al,(%eax)
     fe2:	09 8c 05 00 00 03 05 	or     %ecx,0x5030000(%ebp,%eax,1)
     fe9:	06                   	push   %es
     fea:	0a 87 05 00 00 03    	or     0x3000005(%edi),%al
     ff0:	04 06                	add    $0x6,%al
     ff2:	b7 00                	mov    $0x0,%bh
     ff4:	00 00                	add    %al,(%eax)
     ff6:	03 54 00 00          	add    0x0(%eax,%eax,1),%edx
     ffa:	00 03                	add    %al,(%ebx)
     ffc:	42                   	inc    %edx
     ffd:	00 00                	add    %al,(%eax)
     fff:	00 00                	add    %al,(%eax)
    1001:	0b 94 05 00 00 01 05 	or     0x5010000(%ebp,%eax,1),%edx
    1008:	06                   	push   %es
    1009:	d0 08                	rorb   $1,(%eax)
    100b:	10 00                	adc    %al,(%eax)
    100d:	47                   	inc    %edi
    100e:	00 00                	add    %al,(%eax)
    1010:	00 01                	add    %al,(%ecx)
    1012:	9c                   	pushf
    1013:	0c 05                	or     $0x5,%al
    1015:	05 00 00 01 05       	add    $0x5010000,%eax
    101a:	1e                   	push   %ds
    101b:	74 00                	je     101d <mb2_hdr_begin-0xfefe3>
    101d:	00 00                	add    %al,(%eax)
    101f:	c9                   	leave
    1020:	03 00                	add    (%eax),%eax
    1022:	00 c7                	add    %al,%bh
    1024:	03 00                	add    (%eax),%eax
    1026:	00 05 7d 05 00 00    	add    %al,0x57d
    102c:	0b 74 00 00          	or     0x0(%eax,%eax,1),%esi
    1030:	00 05 71 05 00 00    	add    %al,0x571
    1036:	0c 74                	or     $0x74,%al
    1038:	00 00                	add    %al,(%eax)
    103a:	00 02                	add    %al,(%edx)
    103c:	e9 08 10 00 a0       	jmp    a0002049 <currentModifiers+0x9fefe5ab>
    1041:	00 00                	add    %al,(%eax)
    1043:	00 02                	add    %al,(%edx)
    1045:	ee                   	out    %al,(%dx)
    1046:	08 10                	or     %dl,(%eax)
    1048:	00 98 00 00 00 02    	add    %bl,0x2000000(%eax)
    104e:	f8                   	clc
    104f:	08 10                	or     %dl,(%eax)
    1051:	00 a0 00 00 00 02    	add    %ah,0x2000000(%eax)
    1057:	04 09                	add    $0x9,%al
    1059:	10 00                	adc    %al,(%eax)
    105b:	82 00 00             	addb   $0x0,(%eax)
    105e:	00 0d 17 09 10 00    	add    %cl,0x100917
    1064:	82 00 00             	addb   $0x0,(%eax)
    1067:	00 00                	add    %al,(%eax)
    1069:	00 46 01             	add    %al,0x1(%esi)
    106c:	00 00                	add    %al,(%eax)
    106e:	05 00 01 04 37       	add    $0x37040100,%eax
    1073:	09 00                	or     %eax,(%eax)
    1075:	00 06                	add    %al,(%esi)
    1077:	a2 00 00 00 1d       	mov    %al,0x1d000000
    107c:	bc 01 00 00 00       	mov    $0x1,%esp
    1081:	00 00                	add    %al,(%eax)
    1083:	00 20                	add    %ah,(%eax)
    1085:	09 10                	or     %edx,(%eax)
    1087:	00 25 00 00 00 f6    	add    %ah,0xf6000000
    108d:	09 00                	or     %eax,(%eax)
    108f:	00 01                	add    %al,(%ecx)
    1091:	01 06                	add    %eax,(%esi)
    1093:	6d                   	insl   (%dx),%es:(%edi)
    1094:	01 00                	add    %eax,(%eax)
    1096:	00 01                	add    %al,(%ecx)
    1098:	02 05 e1 02 00 00    	add    0x2e1,%al
    109e:	01 04 05 ce 02 00 00 	add    %eax,0x2ce(,%eax,1)
    10a5:	01 08                	add    %ecx,(%eax)
    10a7:	05 c9 02 00 00       	add    $0x2c9,%eax
    10ac:	02 51 02             	add    0x2(%ecx),%dl
    10af:	00 00                	add    %al,(%eax)
    10b1:	2e 18 4d 00          	sbb    %cl,%cs:0x0(%ebp)
    10b5:	00 00                	add    %al,(%eax)
    10b7:	01 01                	add    %eax,(%ecx)
    10b9:	08 6b 01             	or     %ch,0x1(%ebx)
    10bc:	00 00                	add    %al,(%eax)
    10be:	02 eb                	add    %bl,%ch
    10c0:	02 00                	add    (%eax),%al
    10c2:	00 31                	add    %dh,(%ecx)
    10c4:	19 5f 00             	sbb    %ebx,0x0(%edi)
    10c7:	00 00                	add    %al,(%eax)
    10c9:	01 02                	add    %eax,(%edx)
    10cb:	07                   	pop    %es
    10cc:	89 01                	mov    %eax,(%ecx)
    10ce:	00 00                	add    %al,(%eax)
    10d0:	01 04 07             	add    %eax,(%edi,%eax,1)
    10d3:	3f                   	aas
    10d4:	02 00                	add    (%eax),%al
    10d6:	00 01                	add    %al,(%ecx)
    10d8:	08 07                	or     %al,(%edi)
    10da:	3a 02                	cmp    (%edx),%al
    10dc:	00 00                	add    %al,(%eax)
    10de:	07                   	pop    %es
    10df:	04 05                	add    $0x5,%al
    10e1:	69 6e 74 00 01 04 07 	imul   $0x7040100,0x74(%esi),%ebp
    10e8:	44                   	inc    %esp
    10e9:	02 00                	add    (%eax),%al
    10eb:	00 08                	add    %cl,(%eax)
    10ed:	8c 05 00 00 01 12    	mov    %es,0x12010000
    10f3:	0d 40 09 10 00       	or     $0x100940,%eax
    10f8:	05 00 00 00 01       	add    $0x1000000,%eax
    10fd:	9c                   	pushf
    10fe:	c9                   	leave
    10ff:	00 00                	add    %al,(%eax)
    1101:	00 09                	add    %cl,(%ecx)
    1103:	c9                   	leave
    1104:	00 00                	add    %al,(%eax)
    1106:	00 40 09             	add    %al,0x9(%eax)
    1109:	10 00                	adc    %al,(%eax)
    110b:	02 40 09             	add    0x9(%eax),%al
    110e:	10 00                	adc    %al,(%eax)
    1110:	04 00                	add    $0x0,%al
    1112:	00 00                	add    %al,(%eax)
    1114:	01 14 05 03 d6 00 00 	add    %edx,0xd603(,%eax,1)
    111b:	00 de                	add    %bl,%dh
    111d:	03 00                	add    (%eax),%eax
    111f:	00 dc                	add    %bl,%ah
    1121:	03 00                	add    (%eax),%eax
    1123:	00 03                	add    %al,(%ebx)
    1125:	e0 00                	loopne 1127 <mb2_hdr_begin-0xfeed9>
    1127:	00 00                	add    %al,(%eax)
    1129:	e8 03 00 00 e6       	call   e6001131 <currentModifiers+0xe5efd693>
    112e:	03 00                	add    (%eax),%eax
    1130:	00 00                	add    %al,(%eax)
    1132:	00 0a                	add    %cl,(%edx)
    1134:	87 05 00 00 01 0d    	xchg   %eax,0xd010000
    113a:	0d 03 eb 00 00       	or     $0xeb03,%eax
    113f:	00 04 a8             	add    %al,(%eax,%ebp,4)
    1142:	05 00 00 1b 54       	add    $0x541b0000,%eax
    1147:	00 00                	add    %al,(%eax)
    1149:	00 04 e6             	add    %al,(%esi,%eiz,8)
    114c:	06                   	push   %es
    114d:	00 00                	add    %al,(%eax)
    114f:	29 42 00             	sub    %eax,0x0(%edx)
    1152:	00 00                	add    %al,(%eax)
    1154:	00 0b                	add    %cl,(%ebx)
    1156:	69 6e 62 00 01 04 10 	imul   $0x10040100,0x62(%esi),%ebp
    115d:	42                   	inc    %edx
    115e:	00 00                	add    %al,(%eax)
    1160:	00 20                	add    %ah,(%eax)
    1162:	09 10                	or     %edx,(%eax)
    1164:	00 09                	add    %cl,(%ecx)
    1166:	00 00                	add    %al,(%eax)
    1168:	00 01                	add    %al,(%ecx)
    116a:	9c                   	pushf
    116b:	29 01                	sub    %eax,(%ecx)
    116d:	00 00                	add    %al,(%eax)
    116f:	0c a8                	or     $0xa8,%al
    1171:	05 00 00 01 04       	add    $0x4010000,%eax
    1176:	1d 54 00 00 00       	sbb    $0x54,%eax
    117b:	02 91 00 0d 72 65    	add    0x65720d00(%ecx),%dl
    1181:	74 00                	je     1183 <mb2_hdr_begin-0xfee7d>
    1183:	01 07                	add    %eax,(%edi)
    1185:	0d 42 00 00 00       	or     $0x42,%eax
    118a:	f1                   	int1
    118b:	03 00                	add    (%eax),%eax
    118d:	00 ef                	add    %ch,%bh
    118f:	03 00                	add    (%eax),%eax
    1191:	00 00                	add    %al,(%eax)
    1193:	0e                   	push   %cs
    1194:	c9                   	leave
    1195:	00 00                	add    %al,(%eax)
    1197:	00 30                	add    %dh,(%eax)
    1199:	09 10                	or     %edx,(%eax)
    119b:	00 0e                	add    %cl,(%esi)
    119d:	00 00                	add    %al,(%eax)
    119f:	00 01                	add    %al,(%ecx)
    11a1:	9c                   	pushf
    11a2:	05 d6 00 00 00       	add    $0xd6,%eax
    11a7:	02 91 00 05 e0 00    	add    0xe00500(%ecx),%dl
    11ad:	00 00                	add    %al,(%eax)
    11af:	02 91 04 00 00 f9    	add    -0x6fffffc(%ecx),%dl
    11b5:	01 00                	add    %eax,(%eax)
    11b7:	00 05 00 01 04 2e    	add    %al,0x2e040100
    11bd:	0a 00                	or     (%eax),%al
    11bf:	00 07                	add    %al,(%edi)
    11c1:	a2 00 00 00 1d       	mov    %al,0x1d000000
    11c6:	db 01                	fildl  (%ecx)
    11c8:	00 00                	add    %al,(%eax)
    11ca:	00 00                	add    %al,(%eax)
    11cc:	00 00                	add    %al,(%eax)
    11ce:	50                   	push   %eax
    11cf:	09 10                	or     %edx,(%eax)
    11d1:	00 23                	add    %ah,(%ebx)
    11d3:	01 00                	add    %eax,(%eax)
    11d5:	00 7a 0a             	add    %bh,0xa(%edx)
    11d8:	00 00                	add    %al,(%eax)
    11da:	02 01                	add    (%ecx),%al
    11dc:	06                   	push   %es
    11dd:	6d                   	insl   (%dx),%es:(%edi)
    11de:	01 00                	add    %eax,(%eax)
    11e0:	00 02                	add    %al,(%edx)
    11e2:	02 05 e1 02 00 00    	add    0x2e1,%al
    11e8:	02 04 05 ce 02 00 00 	add    0x2ce(,%eax,1),%al
    11ef:	02 08                	add    (%eax),%cl
    11f1:	05 c9 02 00 00       	add    $0x2c9,%eax
    11f6:	04 51                	add    $0x51,%al
    11f8:	02 00                	add    (%eax),%al
    11fa:	00 2e                	add    %ch,(%esi)
    11fc:	18 4d 00             	sbb    %cl,0x0(%ebp)
    11ff:	00 00                	add    %al,(%eax)
    1201:	02 01                	add    (%ecx),%al
    1203:	08 6b 01             	or     %ch,0x1(%ebx)
    1206:	00 00                	add    %al,(%eax)
    1208:	04 eb                	add    $0xeb,%al
    120a:	02 00                	add    (%eax),%al
    120c:	00 31                	add    %dh,(%ecx)
    120e:	19 5f 00             	sbb    %ebx,0x0(%edi)
    1211:	00 00                	add    %al,(%eax)
    1213:	02 02                	add    (%edx),%al
    1215:	07                   	pop    %es
    1216:	89 01                	mov    %eax,(%ecx)
    1218:	00 00                	add    %al,(%eax)
    121a:	02 04 07             	add    (%edi,%eax,1),%al
    121d:	3f                   	aas
    121e:	02 00                	add    (%eax),%al
    1220:	00 02                	add    %al,(%edx)
    1222:	08 07                	or     %al,(%edi)
    1224:	3a 02                	cmp    (%edx),%al
    1226:	00 00                	add    %al,(%eax)
    1228:	08 04 05 69 6e 74 00 	or     %al,0x746e69(,%eax,1)
    122f:	02 04 07             	add    (%edi,%eax,1),%al
    1232:	44                   	inc    %esp
    1233:	02 00                	add    (%eax),%al
    1235:	00 09                	add    %cl,(%ecx)
    1237:	8c 05 00 00 03 05    	mov    %es,0x5030000
    123d:	06                   	push   %es
    123e:	0a 69 6e             	or     0x6e(%ecx),%ch
    1241:	62 00                	bound  %eax,(%eax)
    1243:	03 03                	add    (%ebx),%eax
    1245:	09 42 00             	or     %eax,0x0(%edx)
    1248:	00 00                	add    %al,(%eax)
    124a:	a0 00 00 00 03       	mov    0x3000000,%al
    124f:	54                   	push   %esp
    1250:	00 00                	add    %al,(%eax)
    1252:	00 00                	add    %al,(%eax)
    1254:	0b 87 05 00 00 03    	or     0x3000005(%edi),%eax
    125a:	04 06                	add    $0x6,%al
    125c:	b7 00                	mov    $0x0,%bh
    125e:	00 00                	add    %al,(%eax)
    1260:	03 54 00 00          	add    0x0(%eax,%eax,1),%edx
    1264:	00 03                	add    %al,(%ebx)
    1266:	42                   	inc    %edx
    1267:	00 00                	add    %al,(%eax)
    1269:	00 00                	add    %al,(%eax)
    126b:	0c bd                	or     $0xbd,%al
    126d:	05 00 00 01 16       	add    $0x16010000,%eax
    1272:	06                   	push   %es
    1273:	90                   	nop
    1274:	09 10                	or     %edx,(%eax)
    1276:	00 e3                	add    %ah,%bl
    1278:	00 00                	add    %al,(%eax)
    127a:	00 01                	add    %al,(%ecx)
    127c:	9c                   	pushf
    127d:	c8 01 00 00          	enter  $0x1,$0x0
    1281:	05 ad 05 00 00       	add    $0x5ad,%eax
    1286:	13 74 00 00          	adc    0x0(%eax,%eax,1),%esi
    128a:	00 05 04 00 00 03    	add    %al,0x3000004
    1290:	04 00                	add    $0x0,%al
    1292:	00 05 b5 05 00 00    	add    %al,0x5b5
    1298:	20 74 00 00          	and    %dh,0x0(%eax,%eax,1)
    129c:	00 0f                	add    %cl,(%edi)
    129e:	04 00                	add    $0x0,%al
    12a0:	00 0d 04 00 00 06    	add    %cl,0x6000004
    12a6:	61                   	popa
    12a7:	31 00                	xor    %eax,(%eax)
    12a9:	0d 42 00 00 00       	or     $0x42,%eax
    12ae:	19 04 00             	sbb    %eax,(%eax,%eax,1)
    12b1:	00 17                	add    %dl,(%edi)
    12b3:	04 00                	add    $0x0,%al
    12b5:	00 06                	add    %al,(%esi)
    12b7:	61                   	popa
    12b8:	32 00                	xor    (%eax),%al
    12ba:	11 42 00             	adc    %eax,0x0(%edx)
    12bd:	00 00                	add    %al,(%eax)
    12bf:	22 04 00             	and    (%eax,%eax,1),%al
    12c2:	00 20                	add    %ah,(%eax)
    12c4:	04 00                	add    $0x0,%al
    12c6:	00 01                	add    %al,(%ecx)
    12c8:	a6                   	cmpsb  %es:(%edi),%ds:(%esi)
    12c9:	09 10                	or     %edx,(%eax)
    12cb:	00 8a 00 00 00 01    	add    %cl,0x1000000(%edx)
    12d1:	b5 09                	mov    $0x9,%ch
    12d3:	10 00                	adc    %al,(%eax)
    12d5:	8a 00                	mov    (%eax),%al
    12d7:	00 00                	add    %al,(%eax)
    12d9:	01 c3                	add    %eax,%ebx
    12db:	09 10                	or     %edx,(%eax)
    12dd:	00 a0 00 00 00 01    	add    %ah,0x1000000(%eax)
    12e3:	c8 09 10 00          	enter  $0x1009,$0x0
    12e7:	82 00 00             	addb   $0x0,(%eax)
    12ea:	00 01                	add    %al,(%ecx)
    12ec:	d6                   	(bad)
    12ed:	09 10                	or     %edx,(%eax)
    12ef:	00 a0 00 00 00 01    	add    %ah,0x1000000(%eax)
    12f5:	db 09                	fisttpl (%ecx)
    12f7:	10 00                	adc    %al,(%eax)
    12f9:	82 00 00             	addb   $0x0,(%eax)
    12fc:	00 01                	add    %al,(%ecx)
    12fe:	ea 09 10 00 a0 00 00 	ljmp   $0x0,$0xa0001009
    1305:	00 01                	add    %al,(%ecx)
    1307:	ef                   	out    %eax,(%dx)
    1308:	09 10                	or     %edx,(%eax)
    130a:	00 82 00 00 00 01    	add    %al,0x1000000(%edx)
    1310:	01 0a                	add    %ecx,(%edx)
    1312:	10 00                	adc    %al,(%eax)
    1314:	a0 00 00 00 01       	mov    0x1000000,%al
    1319:	06                   	push   %es
    131a:	0a 10                	or     (%eax),%dl
    131c:	00 82 00 00 00 01    	add    %al,0x1000000(%edx)
    1322:	11 0a                	adc    %ecx,(%edx)
    1324:	10 00                	adc    %al,(%eax)
    1326:	a0 00 00 00 01       	mov    0x1000000,%al
    132b:	16                   	push   %ss
    132c:	0a 10                	or     (%eax),%dl
    132e:	00 82 00 00 00 01    	add    %al,0x1000000(%edx)
    1334:	24 0a                	and    $0xa,%al
    1336:	10 00                	adc    %al,(%eax)
    1338:	a0 00 00 00 01       	mov    0x1000000,%al
    133d:	29 0a                	sub    %ecx,(%edx)
    133f:	10 00                	adc    %al,(%eax)
    1341:	82 00 00             	addb   $0x0,(%eax)
    1344:	00 01                	add    %al,(%ecx)
    1346:	34 0a                	xor    $0xa,%al
    1348:	10 00                	adc    %al,(%eax)
    134a:	a0 00 00 00 01       	mov    0x1000000,%al
    134f:	39 0a                	cmp    %ecx,(%edx)
    1351:	10 00                	adc    %al,(%eax)
    1353:	82 00 00             	addb   $0x0,(%eax)
    1356:	00 01                	add    %al,(%ecx)
    1358:	47                   	inc    %edi
    1359:	0a 10                	or     (%eax),%dl
    135b:	00 a0 00 00 00 01    	add    %ah,0x1000000(%eax)
    1361:	4c                   	dec    %esp
    1362:	0a 10                	or     (%eax),%dl
    1364:	00 82 00 00 00 01    	add    %al,0x1000000(%edx)
    136a:	56                   	push   %esi
    136b:	0a 10                	or     (%eax),%dl
    136d:	00 a0 00 00 00 0d    	add    %ah,0xd000000(%eax)
    1373:	73 0a                	jae    137f <mb2_hdr_begin-0xfec81>
    1375:	10 00                	adc    %al,(%eax)
    1377:	a0 00 00 00 00       	mov    0x0,%al
    137c:	0e                   	push   %cs
    137d:	c6 05 00 00 01 07 06 	movb   $0x6,0x7010000
    1384:	50                   	push   %eax
    1385:	09 10                	or     %edx,(%eax)
    1387:	00 34 00             	add    %dh,(%eax,%eax,1)
    138a:	00 00                	add    %al,(%eax)
    138c:	01 9c 0f 69 72 71 00 	add    %ebx,0x717269(%edi,%ecx,1)
    1393:	01 07                	add    %eax,(%edi)
    1395:	19 42 00             	sbb    %eax,0x0(%edx)
    1398:	00 00                	add    %al,(%eax)
    139a:	02 91 00 01 68 09    	add    0x9680100(%ecx),%dl
    13a0:	10 00                	adc    %al,(%eax)
    13a2:	a0 00 00 00 01       	mov    0x1000000,%al
    13a7:	7f 09                	jg     13b2 <mb2_hdr_begin-0xfec4e>
    13a9:	10 00                	adc    %al,(%eax)
    13ab:	a0 00 00 00 00       	mov    0x0,%al
    13b0:	00 5b 01             	add    %bl,0x1(%ebx)
    13b3:	00 00                	add    %al,(%eax)
    13b5:	05 00 01 04 34       	add    $0x34040100,%eax
    13ba:	0b 00                	or     (%eax),%eax
    13bc:	00 07                	add    %al,(%edi)
    13be:	a2 00 00 00 1d       	mov    %al,0x1d000000
    13c3:	fd                   	std
    13c4:	01 00                	add    %eax,(%eax)
    13c6:	00 00                	add    %al,(%eax)
    13c8:	00 00                	add    %al,(%eax)
    13ca:	00 80 0a 10 00 73    	add    %al,0x7300100a(%eax)
    13d0:	00 00                	add    %al,(%eax)
    13d2:	00 2e                	add    %ch,(%esi)
    13d4:	0b 00                	or     (%eax),%eax
    13d6:	00 01                	add    %al,(%ecx)
    13d8:	04 05                	add    $0x5,%al
    13da:	ce                   	into
    13db:	02 00                	add    (%eax),%al
    13dd:	00 01                	add    %al,(%ecx)
    13df:	04 07                	add    $0x7,%al
    13e1:	3f                   	aas
    13e2:	02 00                	add    (%eax),%al
    13e4:	00 08                	add    %cl,(%eax)
    13e6:	04 05                	add    $0x5,%al
    13e8:	69 6e 74 00 01 08 05 	imul   $0x5080100,0x74(%esi),%ebp
    13ef:	c9                   	leave
    13f0:	02 00                	add    (%eax),%al
    13f2:	00 01                	add    %al,(%ecx)
    13f4:	0c 04                	or     $0x4,%al
    13f6:	2f                   	das
    13f7:	03 00                	add    (%eax),%eax
    13f9:	00 01                	add    %al,(%ecx)
    13fb:	10 04 98             	adc    %al,(%eax,%ebx,4)
    13fe:	00 00                	add    %al,(%eax)
    1400:	00 01                	add    %al,(%ecx)
    1402:	01 06                	add    %eax,(%esi)
    1404:	6d                   	insl   (%dx),%es:(%edi)
    1405:	01 00                	add    %eax,(%eax)
    1407:	00 01                	add    %al,(%ecx)
    1409:	02 05 e1 02 00 00    	add    0x2e1,%al
    140f:	01 01                	add    %eax,(%ecx)
    1411:	08 6b 01             	or     %ch,0x1(%ebx)
    1414:	00 00                	add    %al,(%eax)
    1416:	01 02                	add    %eax,(%edx)
    1418:	07                   	pop    %es
    1419:	89 01                	mov    %eax,(%ecx)
    141b:	00 00                	add    %al,(%eax)
    141d:	01 08                	add    %ecx,(%eax)
    141f:	07                   	pop    %es
    1420:	3a 02                	cmp    (%edx),%al
    1422:	00 00                	add    %al,(%eax)
    1424:	01 04 07             	add    %eax,(%edi,%eax,1)
    1427:	44                   	inc    %esp
    1428:	02 00                	add    (%eax),%al
    142a:	00 05 bd 05 00 00    	add    %al,0x5bd
    1430:	02 18                	add    (%eax),%bl
    1432:	90                   	nop
    1433:	00 00                	add    %al,(%eax)
    1435:	00 03                	add    %al,(%ebx)
    1437:	34 00                	xor    $0x0,%al
    1439:	00 00                	add    %al,(%eax)
    143b:	03 34 00             	add    (%eax,%eax,1),%esi
    143e:	00 00                	add    %al,(%eax)
    1440:	00 06                	add    %al,(%esi)
    1442:	4e                   	dec    %esi
    1443:	04 00                	add    $0x0,%al
    1445:	00 04 1d 9d 00 00 00 	add    %al,0x9d(,%ebx,1)
    144c:	04 00                	add    $0x0,%al
    144e:	05 94 05 00 00       	add    $0x594,%eax
    1453:	03 01                	add    (%ecx),%eax
    1455:	ae                   	scas   %es:(%edi),%al
    1456:	00 00                	add    %al,(%eax)
    1458:	00 03                	add    %al,(%ebx)
    145a:	34 00                	xor    $0x0,%al
    145c:	00 00                	add    %al,(%eax)
    145e:	00 06                	add    %al,(%esi)
    1460:	f4                   	hlt
    1461:	03 00                	add    (%eax),%eax
    1463:	00 05 1f bb 00 00    	add    %al,0xbb1f
    1469:	00 04 00             	add    %al,(%eax,%eax,1)
    146c:	09 fd                	or     %edi,%ebp
    146e:	03 00                	add    (%eax),%eax
    1470:	00 06                	add    %al,(%esi)
    1472:	0c 05                	or     $0x5,%al
    1474:	34 00                	xor    $0x0,%al
    1476:	00 00                	add    %al,(%eax)
    1478:	d2 00                	rolb   %cl,(%eax)
    147a:	00 00                	add    %al,(%eax)
    147c:	03 d8                	add    %eax,%ebx
    147e:	00 00                	add    %al,(%eax)
    1480:	00 04 00             	add    %al,(%eax,%eax,1)
    1483:	0a 04 e4             	or     (%esp,%eiz,8),%al
    1486:	00 00                	add    %al,(%eax)
    1488:	00 0b                	add    %cl,(%ebx)
    148a:	d2 00                	rolb   %cl,(%eax)
    148c:	00 00                	add    %al,(%eax)
    148e:	01 01                	add    %eax,(%ecx)
    1490:	06                   	push   %es
    1491:	74 01                	je     1494 <mb2_hdr_begin-0xfeb6c>
    1493:	00 00                	add    %al,(%eax)
    1495:	0c dd                	or     $0xdd,%al
    1497:	00 00                	add    %al,(%eax)
    1499:	00 0d a6 02 00 00    	add    %cl,0x2a6
    149f:	07                   	pop    %es
    14a0:	06                   	push   %es
    14a1:	06                   	push   %es
    14a2:	0e                   	push   %cs
    14a3:	d1 05 00 00 01 0b    	roll   $1,0xb010000
    14a9:	06                   	push   %es
    14aa:	80 0a 10             	orb    $0x10,(%edx)
    14ad:	00 73 00             	add    %dh,0x0(%ebx)
    14b0:	00 00                	add    %al,(%eax)
    14b2:	01 9c 02 8b 0a 10 00 	add    %ebx,0x100a8b(%edx,%eax,1)
    14b9:	e9 00 00 00 02       	jmp    20014be <currentModifiers+0x1efda20>
    14be:	98                   	cwtl
    14bf:	0a 10                	or     (%eax),%dl
    14c1:	00 bb 00 00 00 02    	add    %bh,0x2000000(%ebx)
    14c7:	9d                   	popf
    14c8:	0a 10                	or     (%eax),%dl
    14ca:	00 ae 00 00 00 02    	add    %ch,0x2000000(%esi)
    14d0:	a9 0a 10 00 bb       	test   $0xbb00100a,%eax
    14d5:	00 00                	add    %al,(%eax)
    14d7:	00 02                	add    %al,(%edx)
    14d9:	b5 0a                	mov    $0xa,%ch
    14db:	10 00                	adc    %al,(%eax)
    14dd:	9d                   	popf
    14de:	00 00                	add    %al,(%eax)
    14e0:	00 02                	add    %al,(%edx)
    14e2:	c1 0a 10             	rorl   $0x10,(%edx)
    14e5:	00 bb 00 00 00 02    	add    %bh,0x2000000(%ebx)
    14eb:	c6                   	(bad)
    14ec:	0a 10                	or     (%eax),%dl
    14ee:	00 90 00 00 00 02    	add    %dl,0x2000000(%eax)
    14f4:	d2 0a                	rorb   %cl,(%edx)
    14f6:	10 00                	adc    %al,(%eax)
    14f8:	bb 00 00 00 02       	mov    $0x2000000,%ebx
    14fd:	dd 0a                	fisttpll (%edx)
    14ff:	10 00                	adc    %al,(%eax)
    1501:	7a 00                	jp     1503 <mb2_hdr_begin-0xfeafd>
    1503:	00 00                	add    %al,(%eax)
    1505:	02 e9                	add    %cl,%ch
    1507:	0a 10                	or     (%eax),%dl
    1509:	00 bb 00 00 00 00    	add    %bh,0x0(%ebx)
    150f:	00 f9                	add    %bh,%cl
    1511:	04 00                	add    $0x0,%al
    1513:	00 05 00 01 04 f7    	add    %al,0xf7040100
    1519:	0b 00                	or     (%eax),%eax
    151b:	00 15 3b 06 00 00    	add    %dl,0x63b
    1521:	1d 2b 02 00 00       	sbb    $0x22b,%eax
    1526:	3a 02                	cmp    (%edx),%al
    1528:	00 00                	add    %al,(%eax)
    152a:	00 0b                	add    %cl,(%ebx)
    152c:	10 00                	adc    %al,(%eax)
    152e:	09 04 00             	or     %eax,(%eax,%eax,1)
    1531:	00 bf 0b 00 00 07    	add    %bh,0x700000b(%edi)
    1537:	24 06                	and    $0x6,%al
    1539:	00 00                	add    %al,(%eax)
    153b:	02 28                	add    (%eax),%ch
    153d:	1b 32                	sbb    (%edx),%esi
    153f:	00 00                	add    %al,(%eax)
    1541:	00 16                	add    %dl,(%esi)
    1543:	04 e7                	add    $0xe7,%al
    1545:	05 00 00 3c 00       	add    $0x3c0000,%eax
    154a:	00 00                	add    %al,(%eax)
    154c:	02 01                	add    (%ecx),%al
    154e:	06                   	push   %es
    154f:	74 01                	je     1552 <mb2_hdr_begin-0xfeaae>
    1551:	00 00                	add    %al,(%eax)
    1553:	17                   	pop    %ss
    1554:	3c 00                	cmp    $0x0,%al
    1556:	00 00                	add    %al,(%eax)
    1558:	07                   	pop    %es
    1559:	2b 06                	sub    (%esi),%eax
    155b:	00 00                	add    %al,(%eax)
    155d:	02 67 18             	add    0x18(%edi),%ah
    1560:	26 00 00             	add    %al,%es:(%eax)
    1563:	00 02                	add    %al,(%edx)
    1565:	04 05                	add    $0x5,%al
    1567:	ce                   	into
    1568:	02 00                	add    (%eax),%al
    156a:	00 07                	add    %al,(%edi)
    156c:	81 00 00 00 03 d6    	addl   $0xd6030000,(%eax)
    1572:	17                   	pop    %ss
    1573:	67 00 00             	add    %al,(%bx,%si)
    1576:	00 02                	add    %al,(%edx)
    1578:	04 07                	add    $0x7,%al
    157a:	3f                   	aas
    157b:	02 00                	add    (%eax),%al
    157d:	00 18                	add    %bl,(%eax)
    157f:	04 05                	add    $0x5,%al
    1581:	69 6e 74 00 02 08 05 	imul   $0x5080200,0x74(%esi),%ebp
    1588:	c9                   	leave
    1589:	02 00                	add    (%eax),%al
    158b:	00 02                	add    %al,(%edx)
    158d:	0c 04                	or     $0x4,%al
    158f:	2f                   	das
    1590:	03 00                	add    (%eax),%eax
    1592:	00 02                	add    %al,(%edx)
    1594:	10 04 98             	adc    %al,(%eax,%ebx,4)
    1597:	00 00                	add    %al,(%eax)
    1599:	00 02                	add    %al,(%edx)
    159b:	01 06                	add    %eax,(%esi)
    159d:	6d                   	insl   (%dx),%es:(%edi)
    159e:	01 00                	add    %eax,(%eax)
    15a0:	00 02                	add    %al,(%edx)
    15a2:	02 05 e1 02 00 00    	add    0x2e1,%al
    15a8:	02 01                	add    (%ecx),%al
    15aa:	08 6b 01             	or     %ch,0x1(%ebx)
    15ad:	00 00                	add    %al,(%eax)
    15af:	02 02                	add    (%edx),%al
    15b1:	07                   	pop    %es
    15b2:	89 01                	mov    %eax,(%ecx)
    15b4:	00 00                	add    %al,(%eax)
    15b6:	02 08                	add    (%eax),%cl
    15b8:	07                   	pop    %es
    15b9:	3a 02                	cmp    (%edx),%al
    15bb:	00 00                	add    %al,(%eax)
    15bd:	02 04 07             	add    (%edi,%eax,1),%al
    15c0:	44                   	inc    %esp
    15c1:	02 00                	add    (%eax),%al
    15c3:	00 07                	add    %al,(%edi)
    15c5:	85 03                	test   %eax,(%ebx)
    15c7:	00 00                	add    %al,(%eax)
    15c9:	04 56                	add    $0x56,%al
    15cb:	1a 67 00             	sbb    0x0(%edi),%ah
    15ce:	00 00                	add    %al,(%eax)
    15d0:	0d 79 00 00 00       	or     $0x79,%eax
    15d5:	05 0d 05 6e 00       	add    $0x6e050d,%eax
    15da:	00 00                	add    %al,(%eax)
    15dc:	d6                   	(bad)
    15dd:	00 00                	add    %al,(%eax)
    15df:	00 0e                	add    %cl,(%esi)
    15e1:	6e                   	outsb  %ds:(%esi),(%dx)
    15e2:	00 00                	add    %al,(%eax)
    15e4:	00 00                	add    %al,(%eax)
    15e6:	0d 45 01 00 00       	or     $0x145,%eax
    15eb:	06                   	push   %es
    15ec:	10 08                	adc    %cl,(%eax)
    15ee:	5b                   	pop    %ebx
    15ef:	00 00                	add    %al,(%eax)
    15f1:	00 ec                	add    %ch,%ah
    15f3:	00 00                	add    %al,(%eax)
    15f5:	00 0e                	add    %cl,(%esi)
    15f7:	ec                   	in     (%dx),%al
    15f8:	00 00                	add    %al,(%eax)
    15fa:	00 00                	add    %al,(%eax)
    15fc:	0f 43 00             	cmovae (%eax),%eax
    15ff:	00 00                	add    %al,(%eax)
    1601:	19 ec                	sbb    %ebp,%esp
    1603:	00 00                	add    %al,(%eax)
    1605:	00 1a                	add    %bl,(%edx)
    1607:	fd                   	std
    1608:	03 00                	add    (%eax),%eax
    160a:	00 01                	add    %al,(%ecx)
    160c:	13 05 6e 00 00 00    	adc    0x6e,%eax
    1612:	00 0b                	add    %cl,(%ebx)
    1614:	10 00                	adc    %al,(%eax)
    1616:	09 04 00             	or     %eax,(%eax,%eax,1)
    1619:	00 01                	add    %al,(%ecx)
    161b:	9c                   	pushf
    161c:	a0 04 00 00 1b       	mov    0x1b000004,%al
    1621:	cd 06                	int    $0x6
    1623:	00 00                	add    %al,(%eax)
    1625:	01 13                	add    %edx,(%ebx)
    1627:	21 f1                	and    %esi,%ecx
    1629:	00 00                	add    %al,(%eax)
    162b:	00 4d 04             	add    %cl,0x4(%ebp)
    162e:	00 00                	add    %al,(%eax)
    1630:	35 04 00 00 1c       	xor    $0x1c000004,%eax
    1635:	03 a4 06 00 00 15 0a 	add    0xa150000(%esi,%eax,1),%esp
    163c:	48                   	dec    %eax
    163d:	00 00                	add    %al,(%eax)
    163f:	00 d9                	add    %bl,%cl
    1641:	04 00                	add    $0x0,%al
    1643:	00 bb 04 00 00 03    	add    %bh,0x3000004(%ebx)
    1649:	33 06                	xor    (%esi),%eax
    164b:	00 00                	add    %al,(%eax)
    164d:	18 06                	sbb    %al,(%esi)
    164f:	6e                   	outsb  %ds:(%esi),(%dx)
    1650:	00 00                	add    %al,(%eax)
    1652:	00 7a 05             	add    %bh,0x5(%edx)
    1655:	00 00                	add    %al,(%eax)
    1657:	48                   	dec    %eax
    1658:	05 00 00 10 03       	add    $0x3100000,%eax
    165d:	01 00                	add    %eax,(%eax)
    165f:	00 03                	add    %al,(%ebx)
    1661:	b5 06                	mov    $0x6,%ch
    1663:	00 00                	add    %al,(%eax)
    1665:	1c 0a                	sbb    $0xa,%al
    1667:	5b                   	pop    %ebx
    1668:	00 00                	add    %al,(%eax)
    166a:	00 50 06             	add    %dl,0x6(%eax)
    166d:	00 00                	add    %al,(%eax)
    166f:	42                   	inc    %edx
    1670:	06                   	push   %es
    1671:	00 00                	add    %al,(%eax)
    1673:	03 ec                	add    %esp,%ebp
    1675:	06                   	push   %es
    1676:	00 00                	add    %al,(%eax)
    1678:	31 0f                	xor    %ecx,(%edi)
    167a:	ec                   	in     (%dx),%al
    167b:	00 00                	add    %al,(%eax)
    167d:	00 ab 06 00 00 95    	add    %ch,-0x6afffffa(%ebx)
    1683:	06                   	push   %es
    1684:	00 00                	add    %al,(%eax)
    1686:	1d 63 01 00 00       	sbb    $0x163,%eax
    168b:	c9                   	leave
    168c:	01 00                	add    %eax,(%eax)
    168e:	00 06                	add    %al,(%esi)
    1690:	6c                   	insb   (%dx),%es:(%edi)
    1691:	65 6e                	outsb  %gs:(%esi),(%dx)
    1693:	00 22                	add    %ah,(%edx)
    1695:	0b 5b 00             	or     0x0(%ebx),%ebx
    1698:	00 00                	add    %al,(%eax)
    169a:	1b 07                	sbb    (%edi),%eax
    169c:	00 00                	add    %al,(%eax)
    169e:	15 07 00 00 11       	adc    $0x11000007,%eax
    16a3:	ce                   	into
    16a4:	04 00                	add    $0x0,%al
    16a6:	00 d8                	add    %bl,%al
    16a8:	0d 10 00 28 00       	or     $0x280010,%eax
    16ad:	00 00                	add    %al,(%eax)
    16af:	2a 09                	sub    (%ecx),%cl
    16b1:	01 db                	add    %ebx,%ebx
    16b3:	04 00                	add    $0x0,%al
    16b5:	00 01                	add    %al,(%ecx)
    16b7:	e5 04                	in     $0x4,%eax
    16b9:	00 00                	add    %al,(%eax)
    16bb:	0b ef                	or     %edi,%ebp
    16bd:	04 00                	add    $0x0,%al
    16bf:	00 d8                	add    %bl,%al
    16c1:	0d 10 00 28 00       	or     $0x280010,%eax
    16c6:	00 00                	add    %al,(%eax)
    16c8:	1e                   	push   %ds
    16c9:	f0 04 00             	lock add $0x0,%al
    16cc:	00 04 eb             	add    %al,(%ebx,%ebp,8)
    16cf:	0d 10 00 c0 00       	or     $0xc00010,%eax
    16d4:	00 00                	add    %al,(%eax)
    16d6:	00 00                	add    %al,(%eax)
    16d8:	00 10                	add    %dl,(%eax)
    16da:	1c 01                	sbb    $0x1,%al
    16dc:	00 00                	add    %al,(%eax)
    16de:	06                   	push   %es
    16df:	63 00                	arpl   %eax,(%eax)
    16e1:	37                   	aaa
    16e2:	09 3c 00             	or     %edi,(%eax,%eax,1)
    16e5:	00 00                	add    %al,(%eax)
    16e7:	37                   	aaa
    16e8:	07                   	pop    %es
    16e9:	00 00                	add    %al,(%eax)
    16eb:	33 07                	xor    (%edi),%eax
    16ed:	00 00                	add    %al,(%eax)
    16ef:	0c 73                	or     $0x73,%al
    16f1:	74 72                	je     1765 <mb2_hdr_begin-0xfe89b>
    16f3:	00 43 10             	add    %al,0x10(%ebx)
    16f6:	ec                   	in     (%dx),%al
    16f7:	00 00                	add    %al,(%eax)
    16f9:	00 01                	add    %al,(%ecx)
    16fb:	56                   	push   %esi
    16fc:	06                   	push   %es
    16fd:	6c                   	insb   (%dx),%es:(%edi)
    16fe:	65 6e                	outsb  %gs:(%esi),(%dx)
    1700:	00 44 0b 5b          	add    %al,0x5b(%ebx,%ecx,1)
    1704:	00 00                	add    %al,(%eax)
    1706:	00 4f 07             	add    %cl,0x7(%edi)
    1709:	00 00                	add    %al,(%eax)
    170b:	4b                   	dec    %ebx
    170c:	07                   	pop    %es
    170d:	00 00                	add    %al,(%eax)
    170f:	0c 6e                	or     $0x6e,%al
    1711:	75 6d                	jne    1780 <mb2_hdr_begin-0xfe880>
    1713:	00 50 08             	add    %dl,0x8(%eax)
    1716:	6e                   	outsb  %ds:(%esi),(%dx)
    1717:	00 00                	add    %al,(%eax)
    1719:	00 01                	add    %al,(%ecx)
    171b:	57                   	push   %edi
    171c:	08 bc 06 00 00 53 09 	or     %bh,0x9530000(%esi,%eax,1)
    1723:	a0 04 00 00 02       	mov    0x2000004,%al
    1728:	91                   	xchg   %eax,%ecx
    1729:	54                   	push   %esp
    172a:	06                   	push   %es
    172b:	70 00                	jo     172d <mb2_hdr_begin-0xfe8d3>
    172d:	55                   	push   %ebp
    172e:	0a b0 04 00 00 6c    	or     0x6c000004(%eax),%dh
    1734:	07                   	pop    %es
    1735:	00 00                	add    %al,(%eax)
    1737:	5e                   	pop    %esi
    1738:	07                   	pop    %es
    1739:	00 00                	add    %al,(%eax)
    173b:	0c 70                	or     $0x70,%al
    173d:	74 72                	je     17b1 <mb2_hdr_begin-0xfe84f>
    173f:	00 87 0a b5 04 00    	add    %al,0x4b50a(%edi)
    1745:	00 01                	add    %al,(%ecx)
    1747:	52                   	push   %edx
    1748:	08 05 06 00 00 89    	or     %al,0x89000006
    174e:	09 b7 04 00 00 02    	or     %esi,0x2000004(%edi)
    1754:	91                   	xchg   %eax,%ecx
    1755:	54                   	push   %esp
    1756:	03 dc                	add    %esp,%ebx
    1758:	05 00 00 8d 0a       	add    $0xa8d0000,%eax
    175d:	b0 04                	mov    $0x4,%al
    175f:	00 00                	add    %al,(%eax)
    1761:	b2 07                	mov    $0x7,%dl
    1763:	00 00                	add    %al,(%eax)
    1765:	a6                   	cmpsb  %es:(%edi),%ds:(%esi)
    1766:	07                   	pop    %es
    1767:	00 00                	add    %al,(%eax)
    1769:	03 e6                	add    %esi,%esp
    176b:	06                   	push   %es
    176c:	00 00                	add    %al,(%eax)
    176e:	90                   	nop
    176f:	0e                   	push   %cs
    1770:	b4 00                	mov    $0x0,%ah
    1772:	00 00                	add    %al,(%eax)
    1774:	e5 07                	in     $0x7,%eax
    1776:	00 00                	add    %al,(%eax)
    1778:	e3 07                	jecxz  1781 <mb2_hdr_begin-0xfe87f>
    177a:	00 00                	add    %al,(%eax)
    177c:	03 db                	add    %ebx,%ebx
    177e:	06                   	push   %es
    177f:	00 00                	add    %al,(%eax)
    1781:	9b                   	fwait
    1782:	0b 5b 00             	or     0x0(%ebx),%ebx
    1785:	00 00                	add    %al,(%eax)
    1787:	f1                   	int1
    1788:	07                   	pop    %es
    1789:	00 00                	add    %al,(%eax)
    178b:	ed                   	in     (%dx),%eax
    178c:	07                   	pop    %es
    178d:	00 00                	add    %al,(%eax)
    178f:	08 05 07 00 00 a7    	or     %al,0xa7000007
    1795:	0a b5 04 00 00 01    	or     0x1000004(%ebp),%dh
    179b:	57                   	push   %edi
    179c:	08 0f                	or     %cl,(%edi)
    179e:	06                   	push   %es
    179f:	00 00                	add    %al,(%eax)
    17a1:	a9 09 b7 04 00       	test   $0x4b709,%eax
    17a6:	00 02                	add    %al,(%edx)
    17a8:	91                   	xchg   %eax,%ecx
    17a9:	54                   	push   %esp
    17aa:	03 19                	add    (%ecx),%ebx
    17ac:	06                   	push   %es
    17ad:	00 00                	add    %al,(%eax)
    17af:	ad                   	lods   %ds:(%esi),%eax
    17b0:	0a b0 04 00 00 0f    	or     0xf000004(%eax),%dh
    17b6:	08 00                	or     %al,(%eax)
    17b8:	00 09                	add    %cl,(%ecx)
    17ba:	08 00                	or     %al,(%eax)
    17bc:	00 03                	add    %al,(%ebx)
    17be:	fc                   	cld
    17bf:	06                   	push   %es
    17c0:	00 00                	add    %al,(%eax)
    17c2:	b0 0e                	mov    $0xe,%al
    17c4:	b4 00                	mov    $0x0,%ah
    17c6:	00 00                	add    %al,(%eax)
    17c8:	2b 08                	sub    (%eax),%ecx
    17ca:	00 00                	add    %al,(%eax)
    17cc:	27                   	daa
    17cd:	08 00                	or     %al,(%eax)
    17cf:	00 03                	add    %al,(%ebx)
    17d1:	d4 06                	aam    $0x6
    17d3:	00 00                	add    %al,(%eax)
    17d5:	b7 0b                	mov    $0xb,%bh
    17d7:	5b                   	pop    %ebx
    17d8:	00 00                	add    %al,(%eax)
    17da:	00 42 08             	add    %al,0x8(%edx)
    17dd:	00 00                	add    %al,(%eax)
    17df:	3a 08                	cmp    (%eax),%cl
    17e1:	00 00                	add    %al,(%eax)
    17e3:	03 c6                	add    %esi,%eax
    17e5:	06                   	push   %es
    17e6:	00 00                	add    %al,(%eax)
    17e8:	c4 0b                	les    (%ebx),%ecx
    17ea:	5b                   	pop    %ebx
    17eb:	00 00                	add    %al,(%eax)
    17ed:	00 6a 08             	add    %ch,0x8(%edx)
    17f0:	00 00                	add    %al,(%eax)
    17f2:	60                   	pusha
    17f3:	08 00                	or     %al,(%eax)
    17f5:	00 1f                	add    %bl,(%edi)
    17f7:	6f                   	outsl  %ds:(%esi),(%dx)
    17f8:	0e                   	push   %cs
    17f9:	10 00                	adc    %al,(%eax)
    17fb:	8c 00                	mov    %es,(%eax)
    17fd:	00 00                	add    %al,(%eax)
    17ff:	64 03 00             	add    %fs:(%eax),%eax
    1802:	00 20                	add    %ah,(%eax)
    1804:	f9                   	stc
    1805:	05 00 00 01 62       	add    $0x62010000,%eax
    180a:	0a c7                	or     %bh,%al
    180c:	04 00                	add    $0x0,%al
    180e:	00 03                	add    %al,(%ebx)
    1810:	e2 06                	loop   1818 <mb2_hdr_begin-0xfe7e8>
    1812:	00 00                	add    %al,(%eax)
    1814:	63 12                	arpl   %edx,(%edx)
    1816:	ad                   	lods   %ds:(%esi),%eax
    1817:	00 00                	add    %al,(%eax)
    1819:	00 91 08 00 00 8d    	add    %dl,-0x72fffff8(%ecx)
    181f:	08 00                	or     %al,(%eax)
    1821:	00 06                	add    %al,(%esi)
    1823:	6c                   	insb   (%dx),%es:(%edi)
    1824:	65 6e                	outsb  %gs:(%esi),(%dx)
    1826:	00 72 0c             	add    %dh,0xc(%edx)
    1829:	5b                   	pop    %ebx
    182a:	00 00                	add    %al,(%eax)
    182c:	00 a2 08 00 00 a0    	add    %ah,-0x5ffffff8(%edx)
    1832:	08 00                	or     %al,(%eax)
    1834:	00 11                	add    %dl,(%ecx)
    1836:	ce                   	into
    1837:	04 00                	add    $0x0,%al
    1839:	00 c7                	add    %al,%bh
    183b:	0e                   	push   %cs
    183c:	10 00                	adc    %al,(%eax)
    183e:	2c 00                	sub    $0x0,%al
    1840:	00 00                	add    %al,(%eax)
    1842:	7c 0a                	jl     184e <mb2_hdr_begin-0xfe7b2>
    1844:	01 db                	add    %ebx,%ebx
    1846:	04 00                	add    $0x0,%al
    1848:	00 01                	add    %al,(%ecx)
    184a:	e5 04                	in     $0x4,%eax
    184c:	00 00                	add    %al,(%eax)
    184e:	0b ef                	or     %edi,%ebp
    1850:	04 00                	add    $0x0,%al
    1852:	00 c7                	add    %al,%bh
    1854:	0e                   	push   %cs
    1855:	10 00                	adc    %al,(%eax)
    1857:	2c 00                	sub    $0x0,%al
    1859:	00 00                	add    %al,(%eax)
    185b:	05 f0 04 00 00       	add    $0x4f0,%eax
    1860:	ac                   	lods   %ds:(%esi),%al
    1861:	08 00                	or     %al,(%eax)
    1863:	00 aa 08 00 00 04    	add    %ch,0x4000008(%edx)
    1869:	e6 0e                	out    %al,$0xe
    186b:	10 00                	adc    %al,(%eax)
    186d:	c0 00 00             	rolb   $0x0,(%eax)
    1870:	00 00                	add    %al,(%eax)
    1872:	00 00                	add    %al,(%eax)
    1874:	09 ce                	or     %ecx,%esi
    1876:	04 00                	add    $0x0,%al
    1878:	00 38                	add    %bh,(%eax)
    187a:	01 00                	add    %eax,(%eax)
    187c:	00 ca                	add    %cl,%dl
    187e:	9d                   	popf
    187f:	03 00                	add    (%eax),%eax
    1881:	00 01                	add    %al,(%ecx)
    1883:	db 04 00             	fildl  (%eax,%eax,1)
    1886:	00 01                	add    %al,(%ecx)
    1888:	e5 04                	in     $0x4,%eax
    188a:	00 00                	add    %al,(%eax)
    188c:	0a ef                	or     %bh,%ch
    188e:	04 00                	add    $0x0,%al
    1890:	00 38                	add    %bh,(%eax)
    1892:	01 00                	add    %eax,(%eax)
    1894:	00 05 f0 04 00 00    	add    %al,0x4f0
    189a:	b9 08 00 00 b5       	mov    $0xb5000008,%ecx
    189f:	08 00                	or     %al,(%eax)
    18a1:	00 04 a7             	add    %al,(%edi,%eiz,4)
    18a4:	0b 10                	or     (%eax),%edx
    18a6:	00 c0                	add    %al,%al
    18a8:	00 00                	add    %al,(%eax)
    18aa:	00 00                	add    %al,(%eax)
    18ac:	00 21                	add    %ah,(%ecx)
    18ae:	ce                   	into
    18af:	04 00                	add    $0x0,%al
    18b1:	00 e0                	add    %ah,%al
    18b3:	0b 10                	or     (%eax),%edx
    18b5:	00 39                	add    %bh,(%ecx)
    18b7:	00 00                	add    %al,(%eax)
    18b9:	00 01                	add    %al,(%ecx)
    18bb:	4a                   	dec    %edx
    18bc:	09 e0                	or     %esp,%eax
    18be:	03 00                	add    (%eax),%eax
    18c0:	00 01                	add    %al,(%ecx)
    18c2:	db 04 00             	fildl  (%eax,%eax,1)
    18c5:	00 01                	add    %al,(%ecx)
    18c7:	e5 04                	in     $0x4,%eax
    18c9:	00 00                	add    %al,(%eax)
    18cb:	0b ef                	or     %edi,%ebp
    18cd:	04 00                	add    $0x0,%al
    18cf:	00 e0                	add    %ah,%al
    18d1:	0b 10                	or     (%eax),%edx
    18d3:	00 39                	add    %bh,(%ecx)
    18d5:	00 00                	add    %al,(%eax)
    18d7:	00 05 f0 04 00 00    	add    %al,0x4f0
    18dd:	cb                   	lret
    18de:	08 00                	or     %al,(%eax)
    18e0:	00 c9                	add    %cl,%cl
    18e2:	08 00                	or     %al,(%eax)
    18e4:	00 04 0f             	add    %al,(%edi,%ecx,1)
    18e7:	0c 10                	or     $0x10,%al
    18e9:	00 c0                	add    %al,%al
    18eb:	00 00                	add    %al,(%eax)
    18ed:	00 00                	add    %al,(%eax)
    18ef:	00 09                	add    %cl,(%ecx)
    18f1:	ce                   	into
    18f2:	04 00                	add    $0x0,%al
    18f4:	00 42 01             	add    %al,0x1(%edx)
    18f7:	00 00                	add    %al,(%eax)
    18f9:	a1 19 04 00 00       	mov    0x419,%eax
    18fe:	01 db                	add    %ebx,%ebx
    1900:	04 00                	add    $0x0,%al
    1902:	00 01                	add    %al,(%ecx)
    1904:	e5 04                	in     $0x4,%eax
    1906:	00 00                	add    %al,(%eax)
    1908:	0a ef                	or     %bh,%ch
    190a:	04 00                	add    $0x0,%al
    190c:	00 42 01             	add    %al,0x1(%edx)
    190f:	00 00                	add    %al,(%eax)
    1911:	05 f0 04 00 00       	add    $0x4f0,%eax
    1916:	d6                   	(bad)
    1917:	08 00                	or     %al,(%eax)
    1919:	00 d4                	add    %dl,%ah
    191b:	08 00                	or     %al,(%eax)
    191d:	00 04 97             	add    %al,(%edi,%edx,4)
    1920:	0c 10                	or     $0x10,%al
    1922:	00 c0                	add    %al,%al
    1924:	00 00                	add    %al,(%eax)
    1926:	00 00                	add    %al,(%eax)
    1928:	00 09                	add    %cl,(%ecx)
    192a:	ce                   	into
    192b:	04 00                	add    $0x0,%al
    192d:	00 4d 01             	add    %cl,0x1(%ebp)
    1930:	00 00                	add    %al,(%eax)
    1932:	3d 52 04 00 00       	cmp    $0x452,%eax
    1937:	01 db                	add    %ebx,%ebx
    1939:	04 00                	add    $0x0,%al
    193b:	00 01                	add    %al,(%ecx)
    193d:	e5 04                	in     $0x4,%eax
    193f:	00 00                	add    %al,(%eax)
    1941:	0a ef                	or     %bh,%ch
    1943:	04 00                	add    $0x0,%al
    1945:	00 4d 01             	add    %cl,0x1(%ebp)
    1948:	00 00                	add    %al,(%eax)
    194a:	05 f0 04 00 00       	add    $0x4f0,%eax
    194f:	e3 08                	jecxz  1959 <mb2_hdr_begin-0xfe6a7>
    1951:	00 00                	add    %al,(%eax)
    1953:	df 08                	fisttps (%eax)
    1955:	00 00                	add    %al,(%eax)
    1957:	04 f2                	add    $0xf2,%al
    1959:	0c 10                	or     $0x10,%al
    195b:	00 c0                	add    %al,%al
    195d:	00 00                	add    %al,(%eax)
    195f:	00 00                	add    %al,(%eax)
    1961:	00 09                	add    %cl,(%ecx)
    1963:	ce                   	into
    1964:	04 00                	add    $0x0,%al
    1966:	00 58 01             	add    %bl,0x1(%eax)
    1969:	00 00                	add    %al,(%eax)
    196b:	bd 8b 04 00 00       	mov    $0x48b,%ebp
    1970:	01 db                	add    %ebx,%ebx
    1972:	04 00                	add    $0x0,%al
    1974:	00 01                	add    %al,(%ecx)
    1976:	e5 04                	in     $0x4,%eax
    1978:	00 00                	add    %al,(%eax)
    197a:	0a ef                	or     %bh,%ch
    197c:	04 00                	add    $0x0,%al
    197e:	00 58 01             	add    %bl,0x1(%eax)
    1981:	00 00                	add    %al,(%eax)
    1983:	05 f0 04 00 00       	add    $0x4f0,%eax
    1988:	f6 08 00             	testb  $0x0,(%eax)
    198b:	00 f4                	add    %dh,%ah
    198d:	08 00                	or     %al,(%eax)
    198f:	00 04 87             	add    %al,(%edi,%eax,4)
    1992:	0d 10 00 c0 00       	or     $0xc00010,%eax
    1997:	00 00                	add    %al,(%eax)
    1999:	00 00                	add    %al,(%eax)
    199b:	04 71                	add    $0x71,%al
    199d:	0b 10                	or     (%eax),%edx
    199f:	00 d6                	add    %dl,%dh
    19a1:	00 00                	add    %al,(%eax)
    19a3:	00 04 d6             	add    %al,(%esi,%edx,8)
    19a6:	0b 10                	or     (%eax),%edx
    19a8:	00 d6                	add    %dl,%dh
    19aa:	00 00                	add    %al,(%eax)
    19ac:	00 00                	add    %al,(%eax)
    19ae:	00 00                	add    %al,(%eax)
    19b0:	12 3c 00             	adc    (%eax,%eax,1),%bh
    19b3:	00 00                	add    %al,(%eax)
    19b5:	b0 04                	mov    $0x4,%al
    19b7:	00 00                	add    %al,(%eax)
    19b9:	13 67 00             	adc    0x0(%edi),%esp
    19bc:	00 00                	add    %al,(%eax)
    19be:	0b 00                	or     (%eax),%eax
    19c0:	0f 3c                	(bad)
    19c2:	00 00                	add    %al,(%eax)
    19c4:	00 22                	add    %ah,(%edx)
    19c6:	04 12                	add    $0x12,%al
    19c8:	3c 00                	cmp    $0x0,%al
    19ca:	00 00                	add    %al,(%eax)
    19cc:	c7 04 00 00 13 67 00 	movl   $0x671300,(%eax,%eax,1)
    19d3:	00 00                	add    %al,(%eax)
    19d5:	0a 00                	or     (%eax),%al
    19d7:	02 01                	add    (%ecx),%al
    19d9:	02 6b 05             	add    0x5(%ebx),%ch
    19dc:	00 00                	add    %al,(%eax)
    19de:	23 af 06 00 00 01    	and    0x1000006(%edi),%ebp
    19e4:	0a 0d c7 04 00 00    	or     0x4c7,%cl
    19ea:	01 14 ef             	add    %edx,(%edi,%ebp,8)
    19ed:	03 00                	add    (%eax),%eax
    19ef:	00 1f                	add    %bl,(%edi)
    19f1:	ec                   	in     (%dx),%al
    19f2:	00 00                	add    %al,(%eax)
    19f4:	00 14 0c             	add    %dl,(%esp,%ecx,1)
    19f7:	07                   	pop    %es
    19f8:	00 00                	add    %al,(%eax)
    19fa:	2c 5b                	sub    $0x5b,%al
    19fc:	00 00                	add    %al,(%eax)
    19fe:	00 24 25 69 00 01 0c 	add    %ah,0xc010069(,%eiz,1)
    1a05:	0e                   	push   %cs
    1a06:	5b                   	pop    %ebx
    1a07:	00 00                	add    %al,(%eax)
    1a09:	00 00                	add    %al,(%eax)
    1a0b:	00 00                	add    %al,(%eax)
    1a0d:	bd 00 00 00 05       	mov    $0x5000000,%ebp
    1a12:	00 01                	add    %al,(%ecx)
    1a14:	04 df                	add    $0xdf,%al
    1a16:	0d 00 00 03 3b       	or     $0x3b030000,%eax
    1a1b:	06                   	push   %es
    1a1c:	00 00                	add    %al,(%eax)
    1a1e:	1d 6a 02 00 00       	sbb    $0x26a,%eax
    1a23:	3a 02                	cmp    (%edx),%al
    1a25:	00 00                	add    %al,(%eax)
    1a27:	10 0f                	adc    %cl,(%edi)
    1a29:	10 00                	adc    %al,(%eax)
    1a2b:	1f                   	pop    %ds
    1a2c:	00 00                	add    %al,(%eax)
    1a2e:	00 7b 10             	add    %bh,0x10(%ebx)
    1a31:	00 00                	add    %al,(%eax)
    1a33:	01 04 05 ce 02 00 00 	add    %eax,0x2ce(,%eax,1)
    1a3a:	04 81                	add    $0x81,%al
    1a3c:	00 00                	add    %al,(%eax)
    1a3e:	00 02                	add    %al,(%edx)
    1a40:	d6                   	(bad)
    1a41:	17                   	pop    %ss
    1a42:	39 00                	cmp    %eax,(%eax)
    1a44:	00 00                	add    %al,(%eax)
    1a46:	01 04 07             	add    %eax,(%edi,%eax,1)
    1a49:	3f                   	aas
    1a4a:	02 00                	add    (%eax),%al
    1a4c:	00 05 04 05 69 6e    	add    %al,0x6e690504
    1a52:	74 00                	je     1a54 <mb2_hdr_begin-0xfe5ac>
    1a54:	01 08                	add    %ecx,(%eax)
    1a56:	05 c9 02 00 00       	add    $0x2c9,%eax
    1a5b:	01 0c 04             	add    %ecx,(%esp,%eax,1)
    1a5e:	2f                   	das
    1a5f:	03 00                	add    (%eax),%eax
    1a61:	00 01                	add    %al,(%ecx)
    1a63:	10 04 98             	adc    %al,(%eax,%ebx,4)
    1a66:	00 00                	add    %al,(%eax)
    1a68:	00 06                	add    %al,(%esi)
    1a6a:	ce                   	into
    1a6b:	01 00                	add    %eax,(%eax)
    1a6d:	00 03                	add    %al,(%ebx)
    1a6f:	08 06                	or     %al,(%esi)
    1a71:	73 00                	jae    1a73 <mb2_hdr_begin-0xfe58d>
    1a73:	00 00                	add    %al,(%eax)
    1a75:	02 73 00             	add    0x0(%ebx),%dh
    1a78:	00 00                	add    %al,(%eax)
    1a7a:	02 2d 00 00 00 00    	add    0x0,%ch
    1a80:	07                   	pop    %es
    1a81:	04 80                	add    $0x80,%al
    1a83:	00 00                	add    %al,(%eax)
    1a85:	00 01                	add    %al,(%ecx)
    1a87:	01 06                	add    %eax,(%esi)
    1a89:	74 01                	je     1a8c <mb2_hdr_begin-0xfe574>
    1a8b:	00 00                	add    %al,(%eax)
    1a8d:	08 79 00             	or     %bh,0x0(%ecx)
    1a90:	00 00                	add    %al,(%eax)
    1a92:	09 79 00             	or     %edi,0x0(%ecx)
    1a95:	00 00                	add    %al,(%eax)
    1a97:	01 07                	add    %eax,(%edi)
    1a99:	05 40 00 00 00       	add    $0x40,%eax
    1a9e:	10 0f                	adc    %cl,(%edi)
    1aa0:	10 00                	adc    %al,(%eax)
    1aa2:	1f                   	pop    %ds
    1aa3:	00 00                	add    %al,(%eax)
    1aa5:	00 01                	add    %al,(%ecx)
    1aa7:	9c                   	pushf
    1aa8:	0a 69 63             	or     0x63(%ecx),%ch
    1aab:	00 01                	add    %al,(%ecx)
    1aad:	07                   	pop    %es
    1aae:	11 40 00             	adc    %eax,0x0(%eax)
    1ab1:	00 00                	add    %al,(%eax)
    1ab3:	02 91 00 0b 63 00    	add    0x630b00(%ecx),%dl
    1ab9:	01 09                	add    %ecx,(%ecx)
    1abb:	07                   	pop    %es
    1abc:	79 00                	jns    1abe <mb2_hdr_begin-0xfe542>
    1abe:	00 00                	add    %al,(%eax)
    1ac0:	02 91 6f 0c 28 0f    	add    0xf280c6f(%ecx),%dl
    1ac6:	10 00                	adc    %al,(%eax)
    1ac8:	5c                   	pop    %esp
    1ac9:	00 00                	add    %al,(%eax)
    1acb:	00 00                	add    %al,(%eax)
    1acd:	00 ae 00 00 00 05    	add    %ch,0x5000000(%esi)
    1ad3:	00 01                	add    %al,(%ecx)
    1ad5:	04 8a                	add    $0x8a,%al
    1ad7:	0e                   	push   %cs
    1ad8:	00 00                	add    %al,(%eax)
    1ada:	02 3b                	add    (%ebx),%bh
    1adc:	06                   	push   %es
    1add:	00 00                	add    %al,(%eax)
    1adf:	1d b1 02 00 00       	sbb    $0x2b1,%eax
    1ae4:	3a 02                	cmp    (%edx),%al
    1ae6:	00 00                	add    %al,(%eax)
    1ae8:	30 0f                	xor    %cl,(%edi)
    1aea:	10 00                	adc    %al,(%eax)
    1aec:	1b 00                	sbb    (%eax),%eax
    1aee:	00 00                	add    %al,(%eax)
    1af0:	f3 10 00             	repz adc %al,(%eax)
    1af3:	00 01                	add    %al,(%ecx)
    1af5:	04 05                	add    $0x5,%al
    1af7:	ce                   	into
    1af8:	02 00                	add    (%eax),%al
    1afa:	00 03                	add    %al,(%ebx)
    1afc:	81 00 00 00 02 d6    	addl   $0xd6020000,(%eax)
    1b02:	17                   	pop    %ss
    1b03:	39 00                	cmp    %eax,(%eax)
    1b05:	00 00                	add    %al,(%eax)
    1b07:	01 04 07             	add    %eax,(%edi,%eax,1)
    1b0a:	3f                   	aas
    1b0b:	02 00                	add    (%eax),%al
    1b0d:	00 04 04             	add    %al,(%esp,%eax,1)
    1b10:	05 69 6e 74 00       	add    $0x746e69,%eax
    1b15:	01 08                	add    %ecx,(%eax)
    1b17:	05 c9 02 00 00       	add    $0x2c9,%eax
    1b1c:	01 0c 04             	add    %ecx,(%esp,%eax,1)
    1b1f:	2f                   	das
    1b20:	03 00                	add    (%eax),%eax
    1b22:	00 01                	add    %al,(%ecx)
    1b24:	10 04 98             	adc    %al,(%eax,%ebx,4)
    1b27:	00 00                	add    %al,(%eax)
    1b29:	00 05 45 01 00 00    	add    %al,0x145
    1b2f:	01 03                	add    %eax,(%ebx)
    1b31:	08 2d 00 00 00 30    	or     %ch,0x30000000
    1b37:	0f 10 00             	movups (%eax),%xmm0
    1b3a:	1b 00                	sbb    (%eax),%eax
    1b3c:	00 00                	add    %al,(%eax)
    1b3e:	01 9c 9f 00 00 00 06 	add    %ebx,0x6000000(%edi,%ebx,4)
    1b45:	73 74                	jae    1bbb <mb2_hdr_begin-0xfe445>
    1b47:	72 00                	jb     1b49 <mb2_hdr_begin-0xfe4b7>
    1b49:	01 03                	add    %eax,(%ebx)
    1b4b:	1b 9f 00 00 00 0f    	sbb    0xf000000(%edi),%ebx
    1b51:	09 00                	or     %eax,(%eax)
    1b53:	00 0b                	add    %cl,(%ebx)
    1b55:	09 00                	or     %eax,(%eax)
    1b57:	00 07                	add    %al,(%edi)
    1b59:	6c                   	insb   (%dx),%es:(%edi)
    1b5a:	65 6e                	outsb  %gs:(%esi),(%dx)
    1b5c:	00 01                	add    %al,(%ecx)
    1b5e:	04 09                	add    $0x9,%al
    1b60:	2d 00 00 00 1f       	sub    $0x1f000000,%eax
    1b65:	09 00                	or     %eax,(%eax)
    1b67:	00 1b                	add    %bl,(%ebx)
    1b69:	09 00                	or     %eax,(%eax)
    1b6b:	00 00                	add    %al,(%eax)
    1b6d:	08 04 ac             	or     %al,(%esp,%ebp,4)
    1b70:	00 00                	add    %al,(%eax)
    1b72:	00 01                	add    %al,(%ecx)
    1b74:	01 06                	add    %eax,(%esi)
    1b76:	74 01                	je     1b79 <mb2_hdr_begin-0xfe487>
    1b78:	00 00                	add    %al,(%eax)
    1b7a:	09 a5 00 00 00 00    	or     %esp,0x0(%ebp)
    1b80:	1f                   	pop    %ds
    1b81:	00 00                	add    %al,(%eax)
    1b83:	00 05 00 01 04 18    	add    %al,0x18040100
    1b89:	0f 00 00             	sldt   (%eax)
    1b8c:	01 6a 11             	add    %ebp,0x11(%edx)
    1b8f:	00 00                	add    %al,(%eax)
    1b91:	89 01                	mov    %eax,(%ecx)
    1b93:	00 00                	add    %al,(%eax)
    1b95:	13 07                	adc    (%edi),%eax
    1b97:	00 00                	add    %al,(%eax)
    1b99:	11 00                	adc    %eax,(%eax)
    1b9b:	00 00                	add    %al,(%eax)
    1b9d:	34 00                	xor    $0x0,%al
    1b9f:	00 00                	add    %al,(%eax)
    1ba1:	01                   	.byte 0x1
    1ba2:	80                   	.byte 0x80

Disassembly of section .debug_abbrev:

00000000 <.debug_abbrev>:
   0:	01 11                	add    %edx,(%ecx)
   2:	00 10                	add    %dl,(%eax)
   4:	17                   	pop    %ss
   5:	55                   	push   %ebp
   6:	17                   	pop    %ss
   7:	03 0e                	add    (%esi),%ecx
   9:	1b 0e                	sbb    (%esi),%ecx
   b:	25 0e 13 05 00       	and    $0x5130e,%eax
  10:	00 00                	add    %al,(%eax)
  12:	01 11                	add    %edx,(%ecx)
  14:	01 10                	add    %edx,(%eax)
  16:	17                   	pop    %ss
  17:	11 01                	adc    %eax,(%ecx)
  19:	12 0f                	adc    (%edi),%cl
  1b:	03 0e                	add    (%esi),%ecx
  1d:	1b 0e                	sbb    (%esi),%ecx
  1f:	25 0e 13 05 00       	and    $0x5130e,%eax
  24:	00 02                	add    %al,(%edx)
  26:	2e 00 03             	add    %al,%cs:(%ebx)
  29:	0e                   	push   %cs
  2a:	3f                   	aas
  2b:	19 49 15             	sbb    %ecx,0x15(%ecx)
  2e:	11 01                	adc    %eax,(%ecx)
  30:	12 0f                	adc    (%edi),%cl
  32:	00 00                	add    %al,(%eax)
  34:	03 3b                	add    (%ebx),%edi
  36:	00 00                	add    %al,(%eax)
  38:	00 00                	add    %al,(%eax)
  3a:	01 28                	add    %ebp,(%eax)
  3c:	00 03                	add    %al,(%ebx)
  3e:	0e                   	push   %cs
  3f:	1c 0b                	sbb    $0xb,%al
  41:	00 00                	add    %al,(%eax)
  43:	02 24 00             	add    (%eax,%eax,1),%ah
  46:	0b 0b                	or     (%ebx),%ecx
  48:	3e 0b 03             	or     %ds:(%ebx),%eax
  4b:	0e                   	push   %cs
  4c:	00 00                	add    %al,(%eax)
  4e:	03 05 00 31 13 02    	add    0x2133100,%eax
  54:	17                   	pop    %ss
  55:	b7 42                	mov    $0x42,%bh
  57:	17                   	pop    %ss
  58:	00 00                	add    %al,(%eax)
  5a:	04 34                	add    $0x34,%al
  5c:	00 31                	add    %dh,(%ecx)
  5e:	13 02                	adc    (%edx),%eax
  60:	17                   	pop    %ss
  61:	b7 42                	mov    $0x42,%bh
  63:	17                   	pop    %ss
  64:	00 00                	add    %al,(%eax)
  66:	05 05 00 03 08       	add    $0x8030005,%eax
  6b:	3a 0b                	cmp    (%ebx),%cl
  6d:	3b 0b                	cmp    (%ebx),%ecx
  6f:	39 0b                	cmp    %ecx,(%ebx)
  71:	49                   	dec    %ecx
  72:	13 00                	adc    (%eax),%eax
  74:	00 06                	add    %al,(%esi)
  76:	0b 01                	or     (%ecx),%eax
  78:	31 13                	xor    %edx,(%ebx)
  7a:	11 01                	adc    %eax,(%ecx)
  7c:	12 06                	adc    (%esi),%al
  7e:	00 00                	add    %al,(%eax)
  80:	07                   	pop    %es
  81:	05 00 31 13 02       	add    $0x2133100,%eax
  86:	18 00                	sbb    %al,(%eax)
  88:	00 08                	add    %cl,(%eax)
  8a:	34 00                	xor    $0x0,%al
  8c:	03 0e                	add    (%esi),%ecx
  8e:	3a 21                	cmp    (%ecx),%ah
  90:	01 3b                	add    %edi,(%ebx)
  92:	0b 39                	or     (%ecx),%edi
  94:	0b 49 13             	or     0x13(%ecx),%ecx
  97:	02 18                	add    (%eax),%bl
  99:	00 00                	add    %al,(%eax)
  9b:	09 05 00 03 0e 3a    	or     %eax,0x3a0e0300
  a1:	0b 3b                	or     (%ebx),%edi
  a3:	0b 39                	or     (%ecx),%edi
  a5:	0b 49 13             	or     0x13(%ecx),%ecx
  a8:	00 00                	add    %al,(%eax)
  aa:	0a 0b                	or     (%ebx),%cl
  ac:	01 00                	add    %eax,(%eax)
  ae:	00 0b                	add    %cl,(%ebx)
  b0:	16                   	push   %ss
  b1:	00 03                	add    %al,(%ebx)
  b3:	0e                   	push   %cs
  b4:	3a 0b                	cmp    (%ebx),%cl
  b6:	3b 0b                	cmp    (%ebx),%ecx
  b8:	39 0b                	cmp    %ecx,(%ebx)
  ba:	49                   	dec    %ecx
  bb:	13 00                	adc    (%eax),%eax
  bd:	00 0c 26             	add    %cl,(%esi,%eiz,1)
  c0:	00 49 13             	add    %cl,0x13(%ecx)
  c3:	00 00                	add    %al,(%eax)
  c5:	0d 2e 01 3f 19       	or     $0x193f012e,%eax
  ca:	03 0e                	add    (%esi),%ecx
  cc:	3a 21                	cmp    (%ecx),%ah
  ce:	01 3b                	add    %edi,(%ebx)
  d0:	0b 39                	or     (%ecx),%edi
  d2:	21 06                	and    %eax,(%esi)
  d4:	27                   	daa
  d5:	19 11                	sbb    %edx,(%ecx)
  d7:	01 12                	add    %edx,(%edx)
  d9:	06                   	push   %es
  da:	40                   	inc    %eax
  db:	18 7a 19             	sbb    %bh,0x19(%edx)
  de:	01 13                	add    %edx,(%ebx)
  e0:	00 00                	add    %al,(%eax)
  e2:	0e                   	push   %cs
  e3:	48                   	dec    %eax
  e4:	00 7d 01             	add    %bh,0x1(%ebp)
  e7:	7f 13                	jg     fc <mb2_hdr_begin-0xfff04>
  e9:	00 00                	add    %al,(%eax)
  eb:	0f 2e 01             	ucomiss (%ecx),%xmm0
  ee:	3f                   	aas
  ef:	19 03                	sbb    %eax,(%ebx)
  f1:	0e                   	push   %cs
  f2:	3a 21                	cmp    (%ecx),%ah
  f4:	01 3b                	add    %edi,(%ebx)
  f6:	0b 39                	or     (%ecx),%edi
  f8:	21 06                	and    %eax,(%esi)
  fa:	27                   	daa
  fb:	19 20                	sbb    %esp,(%eax)
  fd:	21 01                	and    %eax,(%ecx)
  ff:	01 13                	add    %edx,(%ebx)
 101:	00 00                	add    %al,(%eax)
 103:	10 34 00             	adc    %dh,(%eax,%eax,1)
 106:	03 08                	add    (%eax),%ecx
 108:	3a 21                	cmp    (%ecx),%ah
 10a:	01 3b                	add    %edi,(%ebx)
 10c:	0b 39                	or     (%ecx),%edi
 10e:	0b 49 13             	or     0x13(%ecx),%ecx
 111:	00 00                	add    %al,(%eax)
 113:	11 0b                	adc    %ecx,(%ebx)
 115:	01 31                	add    %esi,(%ecx)
 117:	13 55 17             	adc    0x17(%ebp),%edx
 11a:	00 00                	add    %al,(%eax)
 11c:	12 34 00             	adc    (%eax,%eax,1),%dh
 11f:	03 0e                	add    (%esi),%ecx
 121:	3a 21                	cmp    (%ecx),%ah
 123:	01 3b                	add    %edi,(%ebx)
 125:	0b 39                	or     (%ecx),%edi
 127:	21 15 49 13 1c 0b    	and    %edx,0xb1c1349
 12d:	00 00                	add    %al,(%eax)
 12f:	13 0f                	adc    (%edi),%ecx
 131:	00 0b                	add    %cl,(%ebx)
 133:	21 04 49             	and    %eax,(%ecx,%ecx,2)
 136:	13 00                	adc    (%eax),%eax
 138:	00 14 05 00 03 0e 3a 	add    %dl,0x3a0e0300(,%eax,1)
 13f:	21 01                	and    %eax,(%ecx)
 141:	3b 0b                	cmp    (%ebx),%ecx
 143:	39 0b                	cmp    %ecx,(%ebx)
 145:	49                   	dec    %ecx
 146:	13 02                	adc    (%edx),%eax
 148:	18 00                	sbb    %al,(%eax)
 14a:	00 15 1d 01 31 13    	add    %dl,0x1331011d
 150:	52                   	push   %edx
 151:	01 b8 42 0b 11 01    	add    %edi,0x1110b42(%eax)
 157:	12 06                	adc    (%esi),%al
 159:	58                   	pop    %eax
 15a:	21 01                	and    %eax,(%ecx)
 15c:	59                   	pop    %ecx
 15d:	0b 57 0b             	or     0xb(%edi),%edx
 160:	01 13                	add    %edx,(%ebx)
 162:	00 00                	add    %al,(%eax)
 164:	16                   	push   %ss
 165:	1d 01 31 13 52       	sbb    $0x52133101,%eax
 16a:	01 b8 42 0b 55 17    	add    %edi,0x17550b42(%eax)
 170:	58                   	pop    %eax
 171:	21 01                	and    %eax,(%ecx)
 173:	59                   	pop    %ecx
 174:	21 2a                	and    %ebp,(%edx)
 176:	57                   	push   %edi
 177:	21 1b                	and    %ebx,(%ebx)
 179:	00 00                	add    %al,(%eax)
 17b:	17                   	pop    %ss
 17c:	34 00                	xor    $0x0,%al
 17e:	31 13                	xor    %edx,(%ebx)
 180:	00 00                	add    %al,(%eax)
 182:	18 34 00             	sbb    %dh,(%eax,%eax,1)
 185:	03 0e                	add    (%esi),%ecx
 187:	3a 21                	cmp    (%ecx),%ah
 189:	01 3b                	add    %edi,(%ebx)
 18b:	0b 39                	or     (%ecx),%edi
 18d:	0b 49 13             	or     0x13(%ecx),%ecx
 190:	00 00                	add    %al,(%eax)
 192:	19 2e                	sbb    %ebp,(%esi)
 194:	01 03                	add    %eax,(%ebx)
 196:	0e                   	push   %cs
 197:	3a 21                	cmp    (%ecx),%ah
 199:	02 3b                	add    (%ebx),%bh
 19b:	0b 39                	or     (%ecx),%edi
 19d:	0b 27                	or     (%edi),%esp
 19f:	19 49 13             	sbb    %ecx,0x13(%ecx)
 1a2:	20 21                	and    %ah,(%ecx)
 1a4:	03 01                	add    (%ecx),%eax
 1a6:	13 00                	adc    (%eax),%eax
 1a8:	00 1a                	add    %bl,(%edx)
 1aa:	2e 01 31             	add    %esi,%cs:(%ecx)
 1ad:	13 11                	adc    (%ecx),%edx
 1af:	01 12                	add    %edx,(%edx)
 1b1:	06                   	push   %es
 1b2:	40                   	inc    %eax
 1b3:	18 7a 19             	sbb    %bh,0x19(%edx)
 1b6:	01 13                	add    %edx,(%ebx)
 1b8:	00 00                	add    %al,(%eax)
 1ba:	1b 11                	sbb    (%ecx),%edx
 1bc:	01 25 0e 13 0b 03    	add    %esp,0x30b130e
 1c2:	1f                   	pop    %ds
 1c3:	1b 1f                	sbb    (%edi),%ebx
 1c5:	11 01                	adc    %eax,(%ecx)
 1c7:	12 06                	adc    (%esi),%al
 1c9:	10 17                	adc    %dl,(%edi)
 1cb:	00 00                	add    %al,(%eax)
 1cd:	1c 24                	sbb    $0x24,%al
 1cf:	00 0b                	add    %cl,(%ebx)
 1d1:	0b 3e                	or     (%esi),%edi
 1d3:	0b 03                	or     (%ebx),%eax
 1d5:	08 00                	or     %al,(%eax)
 1d7:	00 1d 04 01 03 0e    	add    %bl,0xe030104
 1dd:	3e 0b 0b             	or     %ds:(%ebx),%ecx
 1e0:	0b 49 13             	or     0x13(%ecx),%ecx
 1e3:	3a 0b                	cmp    (%ebx),%cl
 1e5:	3b 0b                	cmp    (%ebx),%ecx
 1e7:	39 0b                	cmp    %ecx,(%ebx)
 1e9:	01 13                	add    %edx,(%ebx)
 1eb:	00 00                	add    %al,(%eax)
 1ed:	1e                   	push   %ds
 1ee:	34 00                	xor    $0x0,%al
 1f0:	03 0e                	add    (%esi),%ecx
 1f2:	3a 0b                	cmp    (%ebx),%cl
 1f4:	3b 0b                	cmp    (%ebx),%ecx
 1f6:	39 0b                	cmp    %ecx,(%ebx)
 1f8:	49                   	dec    %ecx
 1f9:	13 1c 06             	adc    (%esi,%eax,1),%ebx
 1fc:	00 00                	add    %al,(%eax)
 1fe:	1f                   	pop    %ds
 1ff:	2e 01 3f             	add    %edi,%cs:(%edi)
 202:	19 03                	sbb    %eax,(%ebx)
 204:	0e                   	push   %cs
 205:	3a 0b                	cmp    (%ebx),%cl
 207:	3b 0b                	cmp    (%ebx),%ecx
 209:	39 0b                	cmp    %ecx,(%ebx)
 20b:	27                   	daa
 20c:	19 49 13             	sbb    %ecx,0x13(%ecx)
 20f:	3c 19                	cmp    $0x19,%al
 211:	01 13                	add    %edx,(%ebx)
 213:	00 00                	add    %al,(%eax)
 215:	20 05 00 49 13 00    	and    %al,0x134900
 21b:	00 21                	add    %ah,(%ecx)
 21d:	05 00 03 08 3a       	add    $0x3a080300,%eax
 222:	0b 3b                	or     (%ebx),%edi
 224:	0b 39                	or     (%ecx),%edi
 226:	0b 49 13             	or     0x13(%ecx),%ecx
 229:	02 18                	add    (%eax),%bl
 22b:	00 00                	add    %al,(%eax)
 22d:	22 34 00             	and    (%eax,%eax,1),%dh
 230:	03 08                	add    (%eax),%ecx
 232:	3a 0b                	cmp    (%ebx),%cl
 234:	3b 0b                	cmp    (%ebx),%ecx
 236:	39 0b                	cmp    %ecx,(%ebx)
 238:	49                   	dec    %ecx
 239:	13 02                	adc    (%edx),%eax
 23b:	17                   	pop    %ss
 23c:	b7 42                	mov    $0x42,%bh
 23e:	17                   	pop    %ss
 23f:	00 00                	add    %al,(%eax)
 241:	23 1d 01 31 13 52    	and    0x52133101,%ebx
 247:	01 b8 42 0b 55 17    	add    %edi,0x17550b42(%eax)
 24d:	58                   	pop    %eax
 24e:	0b 59 0b             	or     0xb(%ecx),%ebx
 251:	57                   	push   %edi
 252:	0b 01                	or     (%ecx),%eax
 254:	13 00                	adc    (%eax),%eax
 256:	00 24 0b             	add    %ah,(%ebx,%ecx,1)
 259:	01 55 17             	add    %edx,0x17(%ebp)
 25c:	00 00                	add    %al,(%eax)
 25e:	25 05 00 31 13       	and    $0x13310005,%eax
 263:	00 00                	add    %al,(%eax)
 265:	26 1d 01 31 13 52    	es sbb $0x52133101,%eax
 26b:	01 b8 42 0b 11 01    	add    %edi,0x1110b42(%eax)
 271:	12 06                	adc    (%esi),%al
 273:	58                   	pop    %eax
 274:	0b 59 0b             	or     0xb(%ecx),%ebx
 277:	57                   	push   %edi
 278:	0b 00                	or     (%eax),%eax
 27a:	00 27                	add    %ah,(%edi)
 27c:	2e 01 31             	add    %esi,%cs:(%ecx)
 27f:	13 11                	adc    (%ecx),%edx
 281:	01 12                	add    %edx,(%edx)
 283:	06                   	push   %es
 284:	40                   	inc    %eax
 285:	18 7a 19             	sbb    %bh,0x19(%edx)
 288:	00 00                	add    %al,(%eax)
 28a:	00 01                	add    %al,(%ecx)
 28c:	24 00                	and    $0x0,%al
 28e:	0b 0b                	or     (%ebx),%ecx
 290:	3e 0b 03             	or     %ds:(%ebx),%eax
 293:	0e                   	push   %cs
 294:	00 00                	add    %al,(%eax)
 296:	02 0d 00 03 0e 3a    	add    0x3a0e0300,%cl
 29c:	21 03                	and    %eax,(%ebx)
 29e:	3b 0b                	cmp    (%ebx),%ecx
 2a0:	39 21                	cmp    %esp,(%ecx)
 2a2:	0e                   	push   %cs
 2a3:	49                   	dec    %ecx
 2a4:	13 38                	adc    (%eax),%edi
 2a6:	0b 00                	or     (%eax),%eax
 2a8:	00 03                	add    %al,(%ebx)
 2aa:	16                   	push   %ss
 2ab:	00 03                	add    %al,(%ebx)
 2ad:	0e                   	push   %cs
 2ae:	3a 21                	cmp    (%ecx),%ah
 2b0:	02 3b                	add    (%ebx),%bh
 2b2:	0b 39                	or     (%ecx),%edi
 2b4:	0b 49 13             	or     0x13(%ecx),%ecx
 2b7:	00 00                	add    %al,(%eax)
 2b9:	04 18                	add    $0x18,%al
 2bb:	00 00                	add    %al,(%eax)
 2bd:	00 05 34 00 03 0e    	add    %al,0xe030034
 2c3:	3a 21                	cmp    (%ecx),%ah
 2c5:	01 3b                	add    %edi,(%ebx)
 2c7:	0b 39                	or     (%ecx),%edi
 2c9:	21 16                	and    %edx,(%esi)
 2cb:	49                   	dec    %ecx
 2cc:	13 02                	adc    (%edx),%eax
 2ce:	17                   	pop    %ss
 2cf:	b7 42                	mov    $0x42,%bh
 2d1:	17                   	pop    %ss
 2d2:	00 00                	add    %al,(%eax)
 2d4:	06                   	push   %es
 2d5:	13 01                	adc    (%ecx),%eax
 2d7:	03 0e                	add    (%esi),%ecx
 2d9:	0b 0b                	or     (%ebx),%ecx
 2db:	3a 21                	cmp    (%ecx),%ah
 2dd:	03 3b                	add    (%ebx),%edi
 2df:	0b 39                	or     (%ecx),%edi
 2e1:	0b 01                	or     (%ecx),%eax
 2e3:	13 00                	adc    (%eax),%eax
 2e5:	00 07                	add    %al,(%edi)
 2e7:	2e 01 3f             	add    %edi,%cs:(%edi)
 2ea:	19 03                	sbb    %eax,(%ebx)
 2ec:	0e                   	push   %cs
 2ed:	3a 21                	cmp    (%ecx),%ah
 2ef:	01 3b                	add    %edi,(%ebx)
 2f1:	0b 39                	or     (%ecx),%edi
 2f3:	21 11                	and    %edx,(%ecx)
 2f5:	3c 19                	cmp    $0x19,%al
 2f7:	01 13                	add    %edx,(%ebx)
 2f9:	00 00                	add    %al,(%eax)
 2fb:	08 0f                	or     %cl,(%edi)
 2fd:	00 0b                	add    %cl,(%ebx)
 2ff:	21 04 49             	and    %eax,(%ecx,%ecx,2)
 302:	13 00                	adc    (%eax),%eax
 304:	00 09                	add    %cl,(%ecx)
 306:	05 00 31 13 02       	add    $0x2133100,%eax
 30b:	17                   	pop    %ss
 30c:	b7 42                	mov    $0x42,%bh
 30e:	17                   	pop    %ss
 30f:	00 00                	add    %al,(%eax)
 311:	0a 48 00             	or     0x0(%eax),%cl
 314:	7d 01                	jge    317 <mb2_hdr_begin-0xffce9>
 316:	7f 13                	jg     32b <mb2_hdr_begin-0xffcd5>
 318:	00 00                	add    %al,(%eax)
 31a:	0b 05 00 03 0e 3a    	or     0x3a0e0300,%eax
 320:	21 01                	and    %eax,(%ecx)
 322:	3b 21                	cmp    (%ecx),%esp
 324:	10 39                	adc    %bh,(%ecx)
 326:	0b 49 13             	or     0x13(%ecx),%ecx
 329:	00 00                	add    %al,(%eax)
 32b:	0c 05                	or     $0x5,%al
 32d:	00 31                	add    %dh,(%ecx)
 32f:	13 02                	adc    (%edx),%eax
 331:	18 00                	sbb    %al,(%eax)
 333:	00 0d 11 01 25 0e    	add    %cl,0xe250111
 339:	13 0b                	adc    (%ebx),%ecx
 33b:	03 1f                	add    (%edi),%ebx
 33d:	1b 1f                	sbb    (%edi),%ebx
 33f:	11 01                	adc    %eax,(%ecx)
 341:	12 06                	adc    (%esi),%al
 343:	10 17                	adc    %dl,(%edi)
 345:	00 00                	add    %al,(%eax)
 347:	0e                   	push   %cs
 348:	24 00                	and    $0x0,%al
 34a:	0b 0b                	or     (%ebx),%ecx
 34c:	3e 0b 03             	or     %ds:(%ebx),%eax
 34f:	08 00                	or     %al,(%eax)
 351:	00 0f                	add    %cl,(%edi)
 353:	34 00                	xor    $0x0,%al
 355:	03 0e                	add    (%esi),%ecx
 357:	3a 0b                	cmp    (%ebx),%cl
 359:	3b 0b                	cmp    (%ebx),%ecx
 35b:	39 0b                	cmp    %ecx,(%ebx)
 35d:	49                   	dec    %ecx
 35e:	13 02                	adc    (%edx),%eax
 360:	18 00                	sbb    %al,(%eax)
 362:	00 10                	add    %dl,(%eax)
 364:	01 01                	add    %eax,(%ecx)
 366:	49                   	dec    %ecx
 367:	13 01                	adc    (%ecx),%eax
 369:	13 00                	adc    (%eax),%eax
 36b:	00 11                	add    %dl,(%ecx)
 36d:	21 00                	and    %eax,(%eax)
 36f:	49                   	dec    %ecx
 370:	13 2f                	adc    (%edi),%ebp
 372:	0b 00                	or     (%eax),%eax
 374:	00 12                	add    %dl,(%edx)
 376:	34 00                	xor    $0x0,%al
 378:	03 08                	add    (%eax),%ecx
 37a:	3a 0b                	cmp    (%ebx),%cl
 37c:	3b 0b                	cmp    (%ebx),%ecx
 37e:	39 0b                	cmp    %ecx,(%ebx)
 380:	49                   	dec    %ecx
 381:	13 3f                	adc    (%edi),%edi
 383:	19 02                	sbb    %eax,(%edx)
 385:	18 00                	sbb    %al,(%eax)
 387:	00 13                	add    %dl,(%ebx)
 389:	2e 01 3f             	add    %edi,%cs:(%edi)
 38c:	19 03                	sbb    %eax,(%ebx)
 38e:	0e                   	push   %cs
 38f:	3a 0b                	cmp    (%ebx),%cl
 391:	3b 0b                	cmp    (%ebx),%ecx
 393:	39 0b                	cmp    %ecx,(%ebx)
 395:	27                   	daa
 396:	19 49 13             	sbb    %ecx,0x13(%ecx)
 399:	3c 19                	cmp    $0x19,%al
 39b:	01 13                	add    %edx,(%ebx)
 39d:	00 00                	add    %al,(%eax)
 39f:	14 05                	adc    $0x5,%al
 3a1:	00 49 13             	add    %cl,0x13(%ecx)
 3a4:	00 00                	add    %al,(%eax)
 3a6:	15 37 00 49 13       	adc    $0x13490037,%eax
 3ab:	00 00                	add    %al,(%eax)
 3ad:	16                   	push   %ss
 3ae:	26 00 49 13          	add    %cl,%es:0x13(%ecx)
 3b2:	00 00                	add    %al,(%eax)
 3b4:	17                   	pop    %ss
 3b5:	2e 01 3f             	add    %edi,%cs:(%edi)
 3b8:	19 03                	sbb    %eax,(%ebx)
 3ba:	0e                   	push   %cs
 3bb:	3a 0b                	cmp    (%ebx),%cl
 3bd:	3b 0b                	cmp    (%ebx),%ecx
 3bf:	39 0b                	cmp    %ecx,(%ebx)
 3c1:	11 01                	adc    %eax,(%ecx)
 3c3:	12 06                	adc    (%esi),%al
 3c5:	40                   	inc    %eax
 3c6:	18 7a 19             	sbb    %bh,0x19(%edx)
 3c9:	01 13                	add    %edx,(%ebx)
 3cb:	00 00                	add    %al,(%eax)
 3cd:	18 1d 01 31 13 52    	sbb    %bl,0x52133101
 3d3:	01 b8 42 0b 55 17    	add    %edi,0x17550b42(%eax)
 3d9:	58                   	pop    %eax
 3da:	0b 59 0b             	or     0xb(%ecx),%ebx
 3dd:	57                   	push   %edi
 3de:	0b 01                	or     (%ecx),%eax
 3e0:	13 00                	adc    (%eax),%eax
 3e2:	00 19                	add    %bl,(%ecx)
 3e4:	1d 00 31 13 52       	sbb    $0x52133100,%eax
 3e9:	01 b8 42 0b 11 01    	add    %edi,0x1110b42(%eax)
 3ef:	12 06                	adc    (%esi),%al
 3f1:	58                   	pop    %eax
 3f2:	0b 59 0b             	or     0xb(%ecx),%ebx
 3f5:	57                   	push   %edi
 3f6:	0b 00                	or     (%eax),%eax
 3f8:	00 1a                	add    %bl,(%edx)
 3fa:	48                   	dec    %eax
 3fb:	00 7d 01             	add    %bh,0x1(%ebp)
 3fe:	82 01 19             	addb   $0x19,(%ecx)
 401:	7f 13                	jg     416 <mb2_hdr_begin-0xffbea>
 403:	00 00                	add    %al,(%eax)
 405:	1b 2e                	sbb    (%esi),%ebp
 407:	00 3f                	add    %bh,(%edi)
 409:	19 03                	sbb    %eax,(%ebx)
 40b:	0e                   	push   %cs
 40c:	3a 0b                	cmp    (%ebx),%cl
 40e:	3b 0b                	cmp    (%ebx),%ecx
 410:	39 0b                	cmp    %ecx,(%ebx)
 412:	20 0b                	and    %cl,(%ebx)
 414:	00 00                	add    %al,(%eax)
 416:	1c 2e                	sbb    $0x2e,%al
 418:	01 3f                	add    %edi,(%edi)
 41a:	19 03                	sbb    %eax,(%ebx)
 41c:	0e                   	push   %cs
 41d:	3a 0b                	cmp    (%ebx),%cl
 41f:	3b 0b                	cmp    (%ebx),%ecx
 421:	39 0b                	cmp    %ecx,(%ebx)
 423:	27                   	daa
 424:	19 20                	sbb    %esp,(%eax)
 426:	0b 01                	or     (%ecx),%eax
 428:	13 00                	adc    (%eax),%eax
 42a:	00 1d 2e 01 31 13    	add    %bl,0x1331012e
 430:	11 01                	adc    %eax,(%ecx)
 432:	12 06                	adc    (%esi),%al
 434:	40                   	inc    %eax
 435:	18 7a 19             	sbb    %bh,0x19(%edx)
 438:	01 13                	add    %edx,(%ebx)
 43a:	00 00                	add    %al,(%eax)
 43c:	1e                   	push   %ds
 43d:	2e 00 31             	add    %dh,%cs:(%ecx)
 440:	13 11                	adc    (%ecx),%edx
 442:	01 12                	add    %edx,(%edx)
 444:	06                   	push   %es
 445:	40                   	inc    %eax
 446:	18 7a 19             	sbb    %bh,0x19(%edx)
 449:	00 00                	add    %al,(%eax)
 44b:	00 01                	add    %al,(%ecx)
 44d:	05 00 31 13 02       	add    $0x2133100,%eax
 452:	17                   	pop    %ss
 453:	b7 42                	mov    $0x42,%bh
 455:	17                   	pop    %ss
 456:	00 00                	add    %al,(%eax)
 458:	02 24 00             	add    (%eax,%eax,1),%ah
 45b:	0b 0b                	or     (%ebx),%ecx
 45d:	3e 0b 03             	or     %ds:(%ebx),%eax
 460:	0e                   	push   %cs
 461:	00 00                	add    %al,(%eax)
 463:	03 0d 00 03 0e 3a    	add    0x3a0e0300,%ecx
 469:	21 03                	and    %eax,(%ebx)
 46b:	3b 0b                	cmp    (%ebx),%ecx
 46d:	39 0b                	cmp    %ecx,(%ebx)
 46f:	49                   	dec    %ecx
 470:	13 38                	adc    (%eax),%edi
 472:	0b 00                	or     (%eax),%eax
 474:	00 04 48             	add    %al,(%eax,%ecx,2)
 477:	00 7d 01             	add    %bh,0x1(%ebp)
 47a:	7f 13                	jg     48f <mb2_hdr_begin-0xffb71>
 47c:	00 00                	add    %al,(%eax)
 47e:	05 16 00 03 0e       	add    $0xe030016,%eax
 483:	3a 21                	cmp    (%ecx),%ah
 485:	02 3b                	add    (%ebx),%bh
 487:	0b 39                	or     (%ecx),%edi
 489:	0b 49 13             	or     0x13(%ecx),%ecx
 48c:	00 00                	add    %al,(%eax)
 48e:	06                   	push   %es
 48f:	05 00 31 13 00       	add    $0x133100,%eax
 494:	00 07                	add    %al,(%edi)
 496:	05 00 03 0e 3a       	add    $0x3a0e0300,%eax
 49b:	21 01                	and    %eax,(%ecx)
 49d:	3b 21                	cmp    (%ecx),%esp
 49f:	0a 39                	or     (%ecx),%bh
 4a1:	0b 49 13             	or     0x13(%ecx),%ecx
 4a4:	00 00                	add    %al,(%eax)
 4a6:	08 13                	or     %dl,(%ebx)
 4a8:	01 03                	add    %eax,(%ebx)
 4aa:	0e                   	push   %cs
 4ab:	0b 0b                	or     (%ebx),%ecx
 4ad:	3a 21                	cmp    (%ecx),%ah
 4af:	03 3b                	add    (%ebx),%edi
 4b1:	0b 39                	or     (%ecx),%edi
 4b3:	21 08                	and    %ecx,(%eax)
 4b5:	01 13                	add    %edx,(%ebx)
 4b7:	00 00                	add    %al,(%eax)
 4b9:	09 2e                	or     %ebp,(%esi)
 4bb:	00 3f                	add    %bh,(%edi)
 4bd:	19 03                	sbb    %eax,(%ebx)
 4bf:	0e                   	push   %cs
 4c0:	3a 21                	cmp    (%ecx),%ah
 4c2:	01 3b                	add    %edi,(%ebx)
 4c4:	0b 39                	or     (%ecx),%edi
 4c6:	21 0d 27 19 3c 19    	and    %ecx,0x193c1927
 4cc:	00 00                	add    %al,(%eax)
 4ce:	0a 1d 01 31 13 52    	or     0x52133101,%bl
 4d4:	01 b8 42 0b 55 17    	add    %edi,0x17550b42(%eax)
 4da:	58                   	pop    %eax
 4db:	21 01                	and    %eax,(%ecx)
 4dd:	59                   	pop    %ecx
 4de:	0b 57 21             	or     0x21(%edi),%edx
 4e1:	0d 01 13 00 00       	or     $0x1301,%eax
 4e6:	0b 11                	or     (%ecx),%edx
 4e8:	01 25 0e 13 0b 03    	add    %esp,0x30b130e
 4ee:	1f                   	pop    %ds
 4ef:	1b 1f                	sbb    (%edi),%ebx
 4f1:	11 01                	adc    %eax,(%ecx)
 4f3:	12 06                	adc    (%esi),%al
 4f5:	10 17                	adc    %dl,(%edi)
 4f7:	00 00                	add    %al,(%eax)
 4f9:	0c 24                	or     $0x24,%al
 4fb:	00 0b                	add    %cl,(%ebx)
 4fd:	0b 3e                	or     (%esi),%edi
 4ff:	0b 03                	or     (%ebx),%eax
 501:	08 00                	or     %al,(%eax)
 503:	00 0d 34 00 03 0e    	add    %cl,0xe030034
 509:	3a 0b                	cmp    (%ebx),%cl
 50b:	3b 0b                	cmp    (%ebx),%ecx
 50d:	39 0b                	cmp    %ecx,(%ebx)
 50f:	49                   	dec    %ecx
 510:	13 3f                	adc    (%edi),%edi
 512:	19 02                	sbb    %eax,(%edx)
 514:	18 00                	sbb    %al,(%eax)
 516:	00 0e                	add    %cl,(%esi)
 518:	01 01                	add    %eax,(%ecx)
 51a:	49                   	dec    %ecx
 51b:	13 01                	adc    (%ecx),%eax
 51d:	13 00                	adc    (%eax),%eax
 51f:	00 0f                	add    %cl,(%edi)
 521:	21 00                	and    %eax,(%eax)
 523:	49                   	dec    %ecx
 524:	13 2f                	adc    (%edi),%ebp
 526:	0b 00                	or     (%eax),%eax
 528:	00 10                	add    %dl,(%eax)
 52a:	34 00                	xor    $0x0,%al
 52c:	03 08                	add    (%eax),%ecx
 52e:	3a 0b                	cmp    (%ebx),%cl
 530:	3b 0b                	cmp    (%ebx),%ecx
 532:	39 0b                	cmp    %ecx,(%ebx)
 534:	49                   	dec    %ecx
 535:	13 3f                	adc    (%edi),%edi
 537:	19 02                	sbb    %eax,(%edx)
 539:	18 00                	sbb    %al,(%eax)
 53b:	00 11                	add    %dl,(%ecx)
 53d:	2e 01 3f             	add    %edi,%cs:(%edi)
 540:	19 03                	sbb    %eax,(%ebx)
 542:	0e                   	push   %cs
 543:	3a 0b                	cmp    (%ebx),%cl
 545:	3b 0b                	cmp    (%ebx),%ecx
 547:	39 0b                	cmp    %ecx,(%ebx)
 549:	27                   	daa
 54a:	19 49 13             	sbb    %ecx,0x13(%ecx)
 54d:	3c 19                	cmp    $0x19,%al
 54f:	01 13                	add    %edx,(%ebx)
 551:	00 00                	add    %al,(%eax)
 553:	12 05 00 49 13 00    	adc    0x134900,%al
 559:	00 13                	add    %dl,(%ebx)
 55b:	18 00                	sbb    %al,(%eax)
 55d:	00 00                	add    %al,(%eax)
 55f:	14 0f                	adc    $0xf,%al
 561:	00 0b                	add    %cl,(%ebx)
 563:	0b 49 13             	or     0x13(%ecx),%ecx
 566:	00 00                	add    %al,(%eax)
 568:	15 37 00 49 13       	adc    $0x13490037,%eax
 56d:	00 00                	add    %al,(%eax)
 56f:	16                   	push   %ss
 570:	26 00 49 13          	add    %cl,%es:0x13(%ecx)
 574:	00 00                	add    %al,(%eax)
 576:	17                   	pop    %ss
 577:	2e 01 3f             	add    %edi,%cs:(%edi)
 57a:	19 03                	sbb    %eax,(%ebx)
 57c:	0e                   	push   %cs
 57d:	3a 0b                	cmp    (%ebx),%cl
 57f:	3b 0b                	cmp    (%ebx),%ecx
 581:	39 0b                	cmp    %ecx,(%ebx)
 583:	11 01                	adc    %eax,(%ecx)
 585:	12 06                	adc    (%esi),%al
 587:	40                   	inc    %eax
 588:	18 7a 19             	sbb    %bh,0x19(%edx)
 58b:	01 13                	add    %edx,(%ebx)
 58d:	00 00                	add    %al,(%eax)
 58f:	18 0b                	sbb    %cl,(%ebx)
 591:	01 55 17             	add    %edx,0x17(%ebp)
 594:	01 13                	add    %edx,(%ebx)
 596:	00 00                	add    %al,(%eax)
 598:	19 34 00             	sbb    %esi,(%eax,%eax,1)
 59b:	03 0e                	add    (%esi),%ecx
 59d:	3a 0b                	cmp    (%ebx),%cl
 59f:	3b 0b                	cmp    (%ebx),%ecx
 5a1:	39 0b                	cmp    %ecx,(%ebx)
 5a3:	49                   	dec    %ecx
 5a4:	13 02                	adc    (%edx),%eax
 5a6:	17                   	pop    %ss
 5a7:	b7 42                	mov    $0x42,%bh
 5a9:	17                   	pop    %ss
 5aa:	00 00                	add    %al,(%eax)
 5ac:	1a 1d 01 31 13 52    	sbb    0x52133101,%bl
 5b2:	01 b8 42 0b 11 01    	add    %edi,0x1110b42(%eax)
 5b8:	12 06                	adc    (%esi),%al
 5ba:	58                   	pop    %eax
 5bb:	0b 59 0b             	or     0xb(%ecx),%ebx
 5be:	57                   	push   %edi
 5bf:	0b 01                	or     (%ecx),%eax
 5c1:	13 00                	adc    (%eax),%eax
 5c3:	00 1b                	add    %bl,(%ebx)
 5c5:	1d 00 31 13 52       	sbb    $0x52133100,%eax
 5ca:	01 b8 42 0b 11 01    	add    %edi,0x1110b42(%eax)
 5d0:	12 06                	adc    (%esi),%al
 5d2:	58                   	pop    %eax
 5d3:	0b 59 0b             	or     0xb(%ecx),%ebx
 5d6:	57                   	push   %edi
 5d7:	0b 00                	or     (%eax),%eax
 5d9:	00 1c 2e             	add    %bl,(%esi,%ebp,1)
 5dc:	00 3f                	add    %bh,(%edi)
 5de:	19 03                	sbb    %eax,(%ebx)
 5e0:	0e                   	push   %cs
 5e1:	3a 0b                	cmp    (%ebx),%cl
 5e3:	3b 0b                	cmp    (%ebx),%ecx
 5e5:	39 0b                	cmp    %ecx,(%ebx)
 5e7:	20 0b                	and    %cl,(%ebx)
 5e9:	00 00                	add    %al,(%eax)
 5eb:	1d 2e 01 3f 19       	sbb    $0x193f012e,%eax
 5f0:	03 0e                	add    (%esi),%ecx
 5f2:	3a 0b                	cmp    (%ebx),%cl
 5f4:	3b 0b                	cmp    (%ebx),%ecx
 5f6:	39 0b                	cmp    %ecx,(%ebx)
 5f8:	27                   	daa
 5f9:	19 20                	sbb    %esp,(%eax)
 5fb:	0b 01                	or     (%ecx),%eax
 5fd:	13 00                	adc    (%eax),%eax
 5ff:	00 1e                	add    %bl,(%esi)
 601:	05 00 03 08 3a       	add    $0x3a080300,%eax
 606:	0b 3b                	or     (%ebx),%edi
 608:	0b 39                	or     (%ecx),%edi
 60a:	0b 49 13             	or     0x13(%ecx),%ecx
 60d:	00 00                	add    %al,(%eax)
 60f:	1f                   	pop    %ds
 610:	2e 01 31             	add    %esi,%cs:(%ecx)
 613:	13 11                	adc    (%ecx),%edx
 615:	01 12                	add    %edx,(%edx)
 617:	06                   	push   %es
 618:	40                   	inc    %eax
 619:	18 7a 19             	sbb    %bh,0x19(%edx)
 61c:	01 13                	add    %edx,(%ebx)
 61e:	00 00                	add    %al,(%eax)
 620:	20 05 00 31 13 02    	and    %al,0x2133100
 626:	18 00                	sbb    %al,(%eax)
 628:	00 21                	add    %ah,(%ecx)
 62a:	2e 00 31             	add    %dh,%cs:(%ecx)
 62d:	13 11                	adc    (%ecx),%edx
 62f:	01 12                	add    %edx,(%edx)
 631:	06                   	push   %es
 632:	40                   	inc    %eax
 633:	18 7a 19             	sbb    %bh,0x19(%edx)
 636:	00 00                	add    %al,(%eax)
 638:	00 01                	add    %al,(%ecx)
 63a:	24 00                	and    $0x0,%al
 63c:	0b 0b                	or     (%ebx),%ecx
 63e:	3e 0b 03             	or     %ds:(%ebx),%eax
 641:	0e                   	push   %cs
 642:	00 00                	add    %al,(%eax)
 644:	02 11                	add    (%ecx),%dl
 646:	01 25 0e 13 0b 03    	add    %esp,0x30b130e
 64c:	1f                   	pop    %ds
 64d:	1b 1f                	sbb    (%edi),%ebx
 64f:	11 01                	adc    %eax,(%ecx)
 651:	12 06                	adc    (%esi),%al
 653:	10 17                	adc    %dl,(%edi)
 655:	00 00                	add    %al,(%eax)
 657:	03 16                	add    (%esi),%edx
 659:	00 03                	add    %al,(%ebx)
 65b:	0e                   	push   %cs
 65c:	3a 0b                	cmp    (%ebx),%cl
 65e:	3b 0b                	cmp    (%ebx),%ecx
 660:	39 0b                	cmp    %ecx,(%ebx)
 662:	49                   	dec    %ecx
 663:	13 00                	adc    (%eax),%eax
 665:	00 04 35 00 49 13 00 	add    %al,0x134900(,%esi,1)
 66c:	00 05 24 00 0b 0b    	add    %al,0xb0b0024
 672:	3e 0b 03             	or     %ds:(%ebx),%eax
 675:	08 00                	or     %al,(%eax)
 677:	00 06                	add    %al,(%esi)
 679:	34 00                	xor    $0x0,%al
 67b:	03 0e                	add    (%esi),%ecx
 67d:	3a 0b                	cmp    (%ebx),%cl
 67f:	3b 0b                	cmp    (%ebx),%ecx
 681:	39 0b                	cmp    %ecx,(%ebx)
 683:	49                   	dec    %ecx
 684:	13 3f                	adc    (%edi),%edi
 686:	19 02                	sbb    %eax,(%edx)
 688:	18 00                	sbb    %al,(%eax)
 68a:	00 07                	add    %al,(%edi)
 68c:	2e 01 3f             	add    %edi,%cs:(%edi)
 68f:	19 03                	sbb    %eax,(%ebx)
 691:	0e                   	push   %cs
 692:	3a 0b                	cmp    (%ebx),%cl
 694:	3b 0b                	cmp    (%ebx),%ecx
 696:	39 0b                	cmp    %ecx,(%ebx)
 698:	27                   	daa
 699:	19 49 13             	sbb    %ecx,0x13(%ecx)
 69c:	3c 19                	cmp    $0x19,%al
 69e:	01 13                	add    %edx,(%ebx)
 6a0:	00 00                	add    %al,(%eax)
 6a2:	08 05 00 49 13 00    	or     %al,0x134900
 6a8:	00 09                	add    %cl,(%ecx)
 6aa:	18 00                	sbb    %al,(%eax)
 6ac:	00 00                	add    %al,(%eax)
 6ae:	0a 0f                	or     (%edi),%cl
 6b0:	00 0b                	add    %cl,(%ebx)
 6b2:	0b 49 13             	or     0x13(%ecx),%ecx
 6b5:	00 00                	add    %al,(%eax)
 6b7:	0b 37                	or     (%edi),%esi
 6b9:	00 49 13             	add    %cl,0x13(%ecx)
 6bc:	00 00                	add    %al,(%eax)
 6be:	0c 26                	or     $0x26,%al
 6c0:	00 49 13             	add    %cl,0x13(%ecx)
 6c3:	00 00                	add    %al,(%eax)
 6c5:	0d 2e 01 3f 19       	or     $0x193f012e,%eax
 6ca:	03 0e                	add    (%esi),%ecx
 6cc:	3a 0b                	cmp    (%ebx),%cl
 6ce:	3b 0b                	cmp    (%ebx),%ecx
 6d0:	39 0b                	cmp    %ecx,(%ebx)
 6d2:	11 01                	adc    %eax,(%ecx)
 6d4:	12 06                	adc    (%esi),%al
 6d6:	40                   	inc    %eax
 6d7:	18 7a 19             	sbb    %bh,0x19(%edx)
 6da:	00 00                	add    %al,(%eax)
 6dc:	0e                   	push   %cs
 6dd:	48                   	dec    %eax
 6de:	00 7d 01             	add    %bh,0x1(%ebp)
 6e1:	7f 13                	jg     6f6 <mb2_hdr_begin-0xff90a>
 6e3:	00 00                	add    %al,(%eax)
 6e5:	00 01                	add    %al,(%ecx)
 6e7:	24 00                	and    $0x0,%al
 6e9:	0b 0b                	or     (%ebx),%ecx
 6eb:	3e 0b 03             	or     %ds:(%ebx),%eax
 6ee:	0e                   	push   %cs
 6ef:	00 00                	add    %al,(%eax)
 6f1:	02 48 00             	add    0x0(%eax),%cl
 6f4:	7d 01                	jge    6f7 <mb2_hdr_begin-0xff909>
 6f6:	7f 13                	jg     70b <mb2_hdr_begin-0xff8f5>
 6f8:	00 00                	add    %al,(%eax)
 6fa:	03 05 00 31 13 02    	add    0x2133100,%eax
 700:	17                   	pop    %ss
 701:	b7 42                	mov    $0x42,%bh
 703:	17                   	pop    %ss
 704:	00 00                	add    %al,(%eax)
 706:	04 34                	add    $0x34,%al
 708:	00 03                	add    %al,(%ebx)
 70a:	0e                   	push   %cs
 70b:	3a 21                	cmp    (%ecx),%ah
 70d:	01 3b                	add    %edi,(%ebx)
 70f:	0b 39                	or     (%ecx),%edi
 711:	0b 49 13             	or     0x13(%ecx),%ecx
 714:	3f                   	aas
 715:	19 02                	sbb    %eax,(%edx)
 717:	18 00                	sbb    %al,(%eax)
 719:	00 05 1d 01 31 13    	add    %al,0x1331011d
 71f:	52                   	push   %edx
 720:	01 b8 42 0b 55 17    	add    %edi,0x17550b42(%eax)
 726:	58                   	pop    %eax
 727:	21 01                	and    %eax,(%ecx)
 729:	59                   	pop    %ecx
 72a:	0b 57 0b             	or     0xb(%edi),%edx
 72d:	01 13                	add    %edx,(%ebx)
 72f:	00 00                	add    %al,(%eax)
 731:	06                   	push   %es
 732:	16                   	push   %ss
 733:	00 03                	add    %al,(%ebx)
 735:	0e                   	push   %cs
 736:	3a 0b                	cmp    (%ebx),%cl
 738:	3b 0b                	cmp    (%ebx),%ecx
 73a:	39 0b                	cmp    %ecx,(%ebx)
 73c:	49                   	dec    %ecx
 73d:	13 00                	adc    (%eax),%eax
 73f:	00 07                	add    %al,(%edi)
 741:	01 01                	add    %eax,(%ecx)
 743:	49                   	dec    %ecx
 744:	13 01                	adc    (%ecx),%eax
 746:	13 00                	adc    (%eax),%eax
 748:	00 08                	add    %cl,(%eax)
 74a:	21 00                	and    %eax,(%eax)
 74c:	49                   	dec    %ecx
 74d:	13 2f                	adc    (%edi),%ebp
 74f:	0b 00                	or     (%eax),%eax
 751:	00 09                	add    %cl,(%ecx)
 753:	0d 00 03 0e 3a       	or     $0x3a0e0300,%eax
 758:	21 01                	and    %eax,(%ecx)
 75a:	3b 0b                	cmp    (%ebx),%ecx
 75c:	39 21                	cmp    %esp,(%ecx)
 75e:	0d 49 13 38 0b       	or     $0xb381349,%eax
 763:	00 00                	add    %al,(%eax)
 765:	0a 05 00 49 13 00    	or     0x134900,%al
 76b:	00 0b                	add    %cl,(%ebx)
 76d:	2e 01 3f             	add    %edi,%cs:(%edi)
 770:	19 03                	sbb    %eax,(%ebx)
 772:	0e                   	push   %cs
 773:	3a 21                	cmp    (%ecx),%ah
 775:	01 3b                	add    %edi,(%ebx)
 777:	0b 39                	or     (%ecx),%edi
 779:	21 06                	and    %eax,(%esi)
 77b:	27                   	daa
 77c:	19 49 13             	sbb    %ecx,0x13(%ecx)
 77f:	20 21                	and    %ah,(%ecx)
 781:	01 01                	add    %eax,(%ecx)
 783:	13 00                	adc    (%eax),%eax
 785:	00 0c 05 00 03 0e 3a 	add    %cl,0x3a0e0300(,%eax,1)
 78c:	21 01                	and    %eax,(%ecx)
 78e:	3b 0b                	cmp    (%ebx),%ecx
 790:	39 0b                	cmp    %ecx,(%ebx)
 792:	49                   	dec    %ecx
 793:	13 00                	adc    (%eax),%eax
 795:	00 0d 11 01 25 0e    	add    %cl,0xe250111
 79b:	13 0b                	adc    (%ebx),%ecx
 79d:	03 1f                	add    (%edi),%ebx
 79f:	1b 1f                	sbb    (%edi),%ebx
 7a1:	11 01                	adc    %eax,(%ecx)
 7a3:	12 06                	adc    (%esi),%al
 7a5:	10 17                	adc    %dl,(%edi)
 7a7:	00 00                	add    %al,(%eax)
 7a9:	0e                   	push   %cs
 7aa:	24 00                	and    $0x0,%al
 7ac:	0b 0b                	or     (%ebx),%ecx
 7ae:	3e 0b 03             	or     %ds:(%ebx),%eax
 7b1:	08 00                	or     %al,(%eax)
 7b3:	00 0f                	add    %cl,(%edi)
 7b5:	26 00 49 13          	add    %cl,%es:0x13(%ecx)
 7b9:	00 00                	add    %al,(%eax)
 7bb:	10 13                	adc    %dl,(%ebx)
 7bd:	01 0b                	add    %ecx,(%ebx)
 7bf:	0b 3a                	or     (%edx),%edi
 7c1:	0b 3b                	or     (%ebx),%edi
 7c3:	0b 39                	or     (%ecx),%edi
 7c5:	0b 01                	or     (%ecx),%eax
 7c7:	13 00                	adc    (%eax),%eax
 7c9:	00 11                	add    %dl,(%ecx)
 7cb:	2e 01 3f             	add    %edi,%cs:(%edi)
 7ce:	19 03                	sbb    %eax,(%ebx)
 7d0:	08 3a                	or     %bh,(%edx)
 7d2:	0b 3b                	or     (%ebx),%edi
 7d4:	0b 39                	or     (%ecx),%edi
 7d6:	0b 27                	or     (%edi),%esp
 7d8:	19 49 13             	sbb    %ecx,0x13(%ecx)
 7db:	3c 19                	cmp    $0x19,%al
 7dd:	01 13                	add    %edx,(%ebx)
 7df:	00 00                	add    %al,(%eax)
 7e1:	12 2e                	adc    (%esi),%ch
 7e3:	01 3f                	add    %edi,(%edi)
 7e5:	19 03                	sbb    %eax,(%ebx)
 7e7:	0e                   	push   %cs
 7e8:	3a 0b                	cmp    (%ebx),%cl
 7ea:	3b 0b                	cmp    (%ebx),%ecx
 7ec:	39 0b                	cmp    %ecx,(%ebx)
 7ee:	27                   	daa
 7ef:	19 49 13             	sbb    %ecx,0x13(%ecx)
 7f2:	3c 19                	cmp    $0x19,%al
 7f4:	01 13                	add    %edx,(%ebx)
 7f6:	00 00                	add    %al,(%eax)
 7f8:	13 18                	adc    (%eax),%ebx
 7fa:	00 00                	add    %al,(%eax)
 7fc:	00 14 0f             	add    %dl,(%edi,%ecx,1)
 7ff:	00 0b                	add    %cl,(%ebx)
 801:	0b 49 13             	or     0x13(%ecx),%ecx
 804:	00 00                	add    %al,(%eax)
 806:	15 37 00 49 13       	adc    $0x13490037,%eax
 80b:	00 00                	add    %al,(%eax)
 80d:	16                   	push   %ss
 80e:	2e 01 3f             	add    %edi,%cs:(%edi)
 811:	19 03                	sbb    %eax,(%ebx)
 813:	0e                   	push   %cs
 814:	3a 0b                	cmp    (%ebx),%cl
 816:	3b 0b                	cmp    (%ebx),%ecx
 818:	39 0b                	cmp    %ecx,(%ebx)
 81a:	11 01                	adc    %eax,(%ecx)
 81c:	12 06                	adc    (%esi),%al
 81e:	40                   	inc    %eax
 81f:	18 7a 19             	sbb    %bh,0x19(%edx)
 822:	01 13                	add    %edx,(%ebx)
 824:	00 00                	add    %al,(%eax)
 826:	17                   	pop    %ss
 827:	34 00                	xor    $0x0,%al
 829:	03 0e                	add    (%esi),%ecx
 82b:	3a 0b                	cmp    (%ebx),%cl
 82d:	3b 0b                	cmp    (%ebx),%ecx
 82f:	39 0b                	cmp    %ecx,(%ebx)
 831:	49                   	dec    %ecx
 832:	13 02                	adc    (%edx),%eax
 834:	17                   	pop    %ss
 835:	b7 42                	mov    $0x42,%bh
 837:	17                   	pop    %ss
 838:	00 00                	add    %al,(%eax)
 83a:	18 2e                	sbb    %ch,(%esi)
 83c:	01 31                	add    %esi,(%ecx)
 83e:	13 11                	adc    (%ecx),%edx
 840:	01 12                	add    %edx,(%edx)
 842:	06                   	push   %es
 843:	40                   	inc    %eax
 844:	18 7a 19             	sbb    %bh,0x19(%edx)
 847:	01 13                	add    %edx,(%ebx)
 849:	00 00                	add    %al,(%eax)
 84b:	19 05 00 31 13 02    	sbb    %eax,0x2133100
 851:	18 00                	sbb    %al,(%eax)
 853:	00 1a                	add    %bl,(%edx)
 855:	2e 01 31             	add    %esi,%cs:(%ecx)
 858:	13 11                	adc    (%ecx),%edx
 85a:	01 12                	add    %edx,(%edx)
 85c:	06                   	push   %es
 85d:	40                   	inc    %eax
 85e:	18 7a 19             	sbb    %bh,0x19(%edx)
 861:	00 00                	add    %al,(%eax)
 863:	00 01                	add    %al,(%ecx)
 865:	24 00                	and    $0x0,%al
 867:	0b 0b                	or     (%ebx),%ecx
 869:	3e 0b 03             	or     %ds:(%ebx),%eax
 86c:	0e                   	push   %cs
 86d:	00 00                	add    %al,(%eax)
 86f:	02 48 00             	add    0x0(%eax),%cl
 872:	7d 01                	jge    875 <mb2_hdr_begin-0xff78b>
 874:	7f 13                	jg     889 <mb2_hdr_begin-0xff777>
 876:	00 00                	add    %al,(%eax)
 878:	03 05 00 49 13 00    	add    0x134900,%eax
 87e:	00 04 16             	add    %al,(%esi,%edx,1)
 881:	00 03                	add    %al,(%ebx)
 883:	0e                   	push   %cs
 884:	3a 21                	cmp    (%ecx),%ah
 886:	02 3b                	add    (%ebx),%bh
 888:	0b 39                	or     (%ecx),%edi
 88a:	0b 49 13             	or     0x13(%ecx),%ecx
 88d:	00 00                	add    %al,(%eax)
 88f:	05 34 00 03 0e       	add    $0xe030034,%eax
 894:	3a 21                	cmp    (%ecx),%ah
 896:	01 3b                	add    %edi,(%ebx)
 898:	0b 39                	or     (%ecx),%edi
 89a:	21 09                	and    %ecx,(%ecx)
 89c:	49                   	dec    %ecx
 89d:	13 00                	adc    (%eax),%eax
 89f:	00 06                	add    %al,(%esi)
 8a1:	11 01                	adc    %eax,(%ecx)
 8a3:	25 0e 13 0b 03       	and    $0x30b130e,%eax
 8a8:	1f                   	pop    %ds
 8a9:	1b 1f                	sbb    (%edi),%ebx
 8ab:	11 01                	adc    %eax,(%ecx)
 8ad:	12 06                	adc    (%esi),%al
 8af:	10 17                	adc    %dl,(%edi)
 8b1:	00 00                	add    %al,(%eax)
 8b3:	07                   	pop    %es
 8b4:	24 00                	and    $0x0,%al
 8b6:	0b 0b                	or     (%ebx),%ecx
 8b8:	3e 0b 03             	or     %ds:(%ebx),%eax
 8bb:	08 00                	or     %al,(%eax)
 8bd:	00 08                	add    %cl,(%eax)
 8bf:	2e 01 3f             	add    %edi,%cs:(%edi)
 8c2:	19 03                	sbb    %eax,(%ebx)
 8c4:	08 3a                	or     %bh,(%edx)
 8c6:	0b 3b                	or     (%ebx),%edi
 8c8:	0b 39                	or     (%ecx),%edi
 8ca:	0b 27                	or     (%edi),%esp
 8cc:	19 49 13             	sbb    %ecx,0x13(%ecx)
 8cf:	3c 19                	cmp    $0x19,%al
 8d1:	01 13                	add    %edx,(%ebx)
 8d3:	00 00                	add    %al,(%eax)
 8d5:	09 2e                	or     %ebp,(%esi)
 8d7:	00 3f                	add    %bh,(%edi)
 8d9:	19 03                	sbb    %eax,(%ebx)
 8db:	0e                   	push   %cs
 8dc:	3a 0b                	cmp    (%ebx),%cl
 8de:	3b 0b                	cmp    (%ebx),%ecx
 8e0:	39 0b                	cmp    %ecx,(%ebx)
 8e2:	27                   	daa
 8e3:	19 3c 19             	sbb    %edi,(%ecx,%ebx,1)
 8e6:	00 00                	add    %al,(%eax)
 8e8:	0a 2e                	or     (%esi),%ch
 8ea:	01 3f                	add    %edi,(%edi)
 8ec:	19 03                	sbb    %eax,(%ebx)
 8ee:	0e                   	push   %cs
 8ef:	3a 0b                	cmp    (%ebx),%cl
 8f1:	3b 0b                	cmp    (%ebx),%ecx
 8f3:	39 0b                	cmp    %ecx,(%ebx)
 8f5:	27                   	daa
 8f6:	19 3c 19             	sbb    %edi,(%ecx,%ebx,1)
 8f9:	01 13                	add    %edx,(%ebx)
 8fb:	00 00                	add    %al,(%eax)
 8fd:	0b 2e                	or     (%esi),%ebp
 8ff:	01 3f                	add    %edi,(%edi)
 901:	19 03                	sbb    %eax,(%ebx)
 903:	0e                   	push   %cs
 904:	3a 0b                	cmp    (%ebx),%cl
 906:	3b 0b                	cmp    (%ebx),%ecx
 908:	39 0b                	cmp    %ecx,(%ebx)
 90a:	27                   	daa
 90b:	19 11                	sbb    %edx,(%ecx)
 90d:	01 12                	add    %edx,(%edx)
 90f:	06                   	push   %es
 910:	40                   	inc    %eax
 911:	18 7a 19             	sbb    %bh,0x19(%edx)
 914:	00 00                	add    %al,(%eax)
 916:	0c 05                	or     $0x5,%al
 918:	00 03                	add    %al,(%ebx)
 91a:	0e                   	push   %cs
 91b:	3a 0b                	cmp    (%ebx),%cl
 91d:	3b 0b                	cmp    (%ebx),%ecx
 91f:	39 0b                	cmp    %ecx,(%ebx)
 921:	49                   	dec    %ecx
 922:	13 02                	adc    (%edx),%eax
 924:	17                   	pop    %ss
 925:	b7 42                	mov    $0x42,%bh
 927:	17                   	pop    %ss
 928:	00 00                	add    %al,(%eax)
 92a:	0d 48 00 7d 01       	or     $0x17d0048,%eax
 92f:	82 01 19             	addb   $0x19,(%ecx)
 932:	7f 13                	jg     947 <mb2_hdr_begin-0xff6b9>
 934:	00 00                	add    %al,(%eax)
 936:	00 01                	add    %al,(%ecx)
 938:	24 00                	and    $0x0,%al
 93a:	0b 0b                	or     (%ebx),%ecx
 93c:	3e 0b 03             	or     %ds:(%ebx),%eax
 93f:	0e                   	push   %cs
 940:	00 00                	add    %al,(%eax)
 942:	02 16                	add    (%esi),%dl
 944:	00 03                	add    %al,(%ebx)
 946:	0e                   	push   %cs
 947:	3a 21                	cmp    (%ecx),%ah
 949:	02 3b                	add    (%ebx),%bh
 94b:	0b 39                	or     (%ecx),%edi
 94d:	0b 49 13             	or     0x13(%ecx),%ecx
 950:	00 00                	add    %al,(%eax)
 952:	03 05 00 31 13 02    	add    0x2133100,%eax
 958:	17                   	pop    %ss
 959:	b7 42                	mov    $0x42,%bh
 95b:	17                   	pop    %ss
 95c:	00 00                	add    %al,(%eax)
 95e:	04 05                	add    $0x5,%al
 960:	00 03                	add    %al,(%ebx)
 962:	0e                   	push   %cs
 963:	3a 21                	cmp    (%ecx),%ah
 965:	01 3b                	add    %edi,(%ebx)
 967:	21 0d 39 0b 49 13    	and    %ecx,0x13490b39
 96d:	00 00                	add    %al,(%eax)
 96f:	05 05 00 31 13       	add    $0x13310005,%eax
 974:	02 18                	add    (%eax),%bl
 976:	00 00                	add    %al,(%eax)
 978:	06                   	push   %es
 979:	11 01                	adc    %eax,(%ecx)
 97b:	25 0e 13 0b 03       	and    $0x30b130e,%eax
 980:	1f                   	pop    %ds
 981:	1b 1f                	sbb    (%edi),%ebx
 983:	11 01                	adc    %eax,(%ecx)
 985:	12 06                	adc    (%esi),%al
 987:	10 17                	adc    %dl,(%edi)
 989:	00 00                	add    %al,(%eax)
 98b:	07                   	pop    %es
 98c:	24 00                	and    $0x0,%al
 98e:	0b 0b                	or     (%ebx),%ecx
 990:	3e 0b 03             	or     %ds:(%ebx),%eax
 993:	08 00                	or     %al,(%eax)
 995:	00 08                	add    %cl,(%eax)
 997:	2e 01 3f             	add    %edi,%cs:(%edi)
 99a:	19 03                	sbb    %eax,(%ebx)
 99c:	0e                   	push   %cs
 99d:	3a 0b                	cmp    (%ebx),%cl
 99f:	3b 0b                	cmp    (%ebx),%ecx
 9a1:	39 0b                	cmp    %ecx,(%ebx)
 9a3:	27                   	daa
 9a4:	19 11                	sbb    %edx,(%ecx)
 9a6:	01 12                	add    %edx,(%edx)
 9a8:	06                   	push   %es
 9a9:	40                   	inc    %eax
 9aa:	18 7a 19             	sbb    %bh,0x19(%edx)
 9ad:	01 13                	add    %edx,(%ebx)
 9af:	00 00                	add    %al,(%eax)
 9b1:	09 1d 01 31 13 52    	or     %ebx,0x52133101
 9b7:	01 b8 42 0b 11 01    	add    %edi,0x1110b42(%eax)
 9bd:	12 06                	adc    (%esi),%al
 9bf:	58                   	pop    %eax
 9c0:	0b 59 0b             	or     0xb(%ecx),%ebx
 9c3:	57                   	push   %edi
 9c4:	0b 00                	or     (%eax),%eax
 9c6:	00 0a                	add    %cl,(%edx)
 9c8:	2e 01 3f             	add    %edi,%cs:(%edi)
 9cb:	19 03                	sbb    %eax,(%ebx)
 9cd:	0e                   	push   %cs
 9ce:	3a 0b                	cmp    (%ebx),%cl
 9d0:	3b 0b                	cmp    (%ebx),%ecx
 9d2:	39 0b                	cmp    %ecx,(%ebx)
 9d4:	27                   	daa
 9d5:	19 20                	sbb    %esp,(%eax)
 9d7:	0b 01                	or     (%ecx),%eax
 9d9:	13 00                	adc    (%eax),%eax
 9db:	00 0b                	add    %cl,(%ebx)
 9dd:	2e 01 3f             	add    %edi,%cs:(%edi)
 9e0:	19 03                	sbb    %eax,(%ebx)
 9e2:	08 3a                	or     %bh,(%edx)
 9e4:	0b 3b                	or     (%ebx),%edi
 9e6:	0b 39                	or     (%ecx),%edi
 9e8:	0b 27                	or     (%edi),%esp
 9ea:	19 49 13             	sbb    %ecx,0x13(%ecx)
 9ed:	11 01                	adc    %eax,(%ecx)
 9ef:	12 06                	adc    (%esi),%al
 9f1:	40                   	inc    %eax
 9f2:	18 7a 19             	sbb    %bh,0x19(%edx)
 9f5:	01 13                	add    %edx,(%ebx)
 9f7:	00 00                	add    %al,(%eax)
 9f9:	0c 05                	or     $0x5,%al
 9fb:	00 03                	add    %al,(%ebx)
 9fd:	0e                   	push   %cs
 9fe:	3a 0b                	cmp    (%ebx),%cl
 a00:	3b 0b                	cmp    (%ebx),%ecx
 a02:	39 0b                	cmp    %ecx,(%ebx)
 a04:	49                   	dec    %ecx
 a05:	13 02                	adc    (%edx),%eax
 a07:	18 00                	sbb    %al,(%eax)
 a09:	00 0d 34 00 03 08    	add    %cl,0x8030034
 a0f:	3a 0b                	cmp    (%ebx),%cl
 a11:	3b 0b                	cmp    (%ebx),%ecx
 a13:	39 0b                	cmp    %ecx,(%ebx)
 a15:	49                   	dec    %ecx
 a16:	13 02                	adc    (%edx),%eax
 a18:	17                   	pop    %ss
 a19:	b7 42                	mov    $0x42,%bh
 a1b:	17                   	pop    %ss
 a1c:	00 00                	add    %al,(%eax)
 a1e:	0e                   	push   %cs
 a1f:	2e 01 31             	add    %esi,%cs:(%ecx)
 a22:	13 11                	adc    (%ecx),%edx
 a24:	01 12                	add    %edx,(%edx)
 a26:	06                   	push   %es
 a27:	40                   	inc    %eax
 a28:	18 7a 19             	sbb    %bh,0x19(%edx)
 a2b:	00 00                	add    %al,(%eax)
 a2d:	00 01                	add    %al,(%ecx)
 a2f:	48                   	dec    %eax
 a30:	00 7d 01             	add    %bh,0x1(%ebp)
 a33:	7f 13                	jg     a48 <mb2_hdr_begin-0xff5b8>
 a35:	00 00                	add    %al,(%eax)
 a37:	02 24 00             	add    (%eax,%eax,1),%ah
 a3a:	0b 0b                	or     (%ebx),%ecx
 a3c:	3e 0b 03             	or     %ds:(%ebx),%eax
 a3f:	0e                   	push   %cs
 a40:	00 00                	add    %al,(%eax)
 a42:	03 05 00 49 13 00    	add    0x134900,%eax
 a48:	00 04 16             	add    %al,(%esi,%edx,1)
 a4b:	00 03                	add    %al,(%ebx)
 a4d:	0e                   	push   %cs
 a4e:	3a 21                	cmp    (%ecx),%ah
 a50:	02 3b                	add    (%ebx),%bh
 a52:	0b 39                	or     (%ecx),%edi
 a54:	0b 49 13             	or     0x13(%ecx),%ecx
 a57:	00 00                	add    %al,(%eax)
 a59:	05 05 00 03 0e       	add    $0xe030005,%eax
 a5e:	3a 21                	cmp    (%ecx),%ah
 a60:	01 3b                	add    %edi,(%ebx)
 a62:	21 16                	and    %edx,(%esi)
 a64:	39 0b                	cmp    %ecx,(%ebx)
 a66:	49                   	dec    %ecx
 a67:	13 02                	adc    (%edx),%eax
 a69:	17                   	pop    %ss
 a6a:	b7 42                	mov    $0x42,%bh
 a6c:	17                   	pop    %ss
 a6d:	00 00                	add    %al,(%eax)
 a6f:	06                   	push   %es
 a70:	34 00                	xor    $0x0,%al
 a72:	03 08                	add    (%eax),%ecx
 a74:	3a 21                	cmp    (%ecx),%ah
 a76:	01 3b                	add    %edi,(%ebx)
 a78:	21 18                	and    %ebx,(%eax)
 a7a:	39 0b                	cmp    %ecx,(%ebx)
 a7c:	49                   	dec    %ecx
 a7d:	13 02                	adc    (%edx),%eax
 a7f:	17                   	pop    %ss
 a80:	b7 42                	mov    $0x42,%bh
 a82:	17                   	pop    %ss
 a83:	00 00                	add    %al,(%eax)
 a85:	07                   	pop    %es
 a86:	11 01                	adc    %eax,(%ecx)
 a88:	25 0e 13 0b 03       	and    $0x30b130e,%eax
 a8d:	1f                   	pop    %ds
 a8e:	1b 1f                	sbb    (%edi),%ebx
 a90:	11 01                	adc    %eax,(%ecx)
 a92:	12 06                	adc    (%esi),%al
 a94:	10 17                	adc    %dl,(%edi)
 a96:	00 00                	add    %al,(%eax)
 a98:	08 24 00             	or     %ah,(%eax,%eax,1)
 a9b:	0b 0b                	or     (%ebx),%ecx
 a9d:	3e 0b 03             	or     %ds:(%ebx),%eax
 aa0:	08 00                	or     %al,(%eax)
 aa2:	00 09                	add    %cl,(%ecx)
 aa4:	2e 00 3f             	add    %bh,%cs:(%edi)
 aa7:	19 03                	sbb    %eax,(%ebx)
 aa9:	0e                   	push   %cs
 aaa:	3a 0b                	cmp    (%ebx),%cl
 aac:	3b 0b                	cmp    (%ebx),%ecx
 aae:	39 0b                	cmp    %ecx,(%ebx)
 ab0:	27                   	daa
 ab1:	19 3c 19             	sbb    %edi,(%ecx,%ebx,1)
 ab4:	00 00                	add    %al,(%eax)
 ab6:	0a 2e                	or     (%esi),%ch
 ab8:	01 3f                	add    %edi,(%edi)
 aba:	19 03                	sbb    %eax,(%ebx)
 abc:	08 3a                	or     %bh,(%edx)
 abe:	0b 3b                	or     (%ebx),%edi
 ac0:	0b 39                	or     (%ecx),%edi
 ac2:	0b 27                	or     (%edi),%esp
 ac4:	19 49 13             	sbb    %ecx,0x13(%ecx)
 ac7:	3c 19                	cmp    $0x19,%al
 ac9:	01 13                	add    %edx,(%ebx)
 acb:	00 00                	add    %al,(%eax)
 acd:	0b 2e                	or     (%esi),%ebp
 acf:	01 3f                	add    %edi,(%edi)
 ad1:	19 03                	sbb    %eax,(%ebx)
 ad3:	0e                   	push   %cs
 ad4:	3a 0b                	cmp    (%ebx),%cl
 ad6:	3b 0b                	cmp    (%ebx),%ecx
 ad8:	39 0b                	cmp    %ecx,(%ebx)
 ada:	27                   	daa
 adb:	19 3c 19             	sbb    %edi,(%ecx,%ebx,1)
 ade:	01 13                	add    %edx,(%ebx)
 ae0:	00 00                	add    %al,(%eax)
 ae2:	0c 2e                	or     $0x2e,%al
 ae4:	01 3f                	add    %edi,(%edi)
 ae6:	19 03                	sbb    %eax,(%ebx)
 ae8:	0e                   	push   %cs
 ae9:	3a 0b                	cmp    (%ebx),%cl
 aeb:	3b 0b                	cmp    (%ebx),%ecx
 aed:	39 0b                	cmp    %ecx,(%ebx)
 aef:	27                   	daa
 af0:	19 11                	sbb    %edx,(%ecx)
 af2:	01 12                	add    %edx,(%edx)
 af4:	06                   	push   %es
 af5:	40                   	inc    %eax
 af6:	18 7a 19             	sbb    %bh,0x19(%edx)
 af9:	01 13                	add    %edx,(%ebx)
 afb:	00 00                	add    %al,(%eax)
 afd:	0d 48 00 7d 01       	or     $0x17d0048,%eax
 b02:	82 01 19             	addb   $0x19,(%ecx)
 b05:	7f 13                	jg     b1a <mb2_hdr_begin-0xff4e6>
 b07:	00 00                	add    %al,(%eax)
 b09:	0e                   	push   %cs
 b0a:	2e 01 3f             	add    %edi,%cs:(%edi)
 b0d:	19 03                	sbb    %eax,(%ebx)
 b0f:	0e                   	push   %cs
 b10:	3a 0b                	cmp    (%ebx),%cl
 b12:	3b 0b                	cmp    (%ebx),%ecx
 b14:	39 0b                	cmp    %ecx,(%ebx)
 b16:	27                   	daa
 b17:	19 11                	sbb    %edx,(%ecx)
 b19:	01 12                	add    %edx,(%edx)
 b1b:	06                   	push   %es
 b1c:	40                   	inc    %eax
 b1d:	18 7a 19             	sbb    %bh,0x19(%edx)
 b20:	00 00                	add    %al,(%eax)
 b22:	0f 05                	syscall
 b24:	00 03                	add    %al,(%ebx)
 b26:	08 3a                	or     %bh,(%edx)
 b28:	0b 3b                	or     (%ebx),%edi
 b2a:	0b 39                	or     (%ecx),%edi
 b2c:	0b 49 13             	or     0x13(%ecx),%ecx
 b2f:	02 18                	add    (%eax),%bl
 b31:	00 00                	add    %al,(%eax)
 b33:	00 01                	add    %al,(%ecx)
 b35:	24 00                	and    $0x0,%al
 b37:	0b 0b                	or     (%ebx),%ecx
 b39:	3e 0b 03             	or     %ds:(%ebx),%eax
 b3c:	0e                   	push   %cs
 b3d:	00 00                	add    %al,(%eax)
 b3f:	02 48 00             	add    0x0(%eax),%cl
 b42:	7d 01                	jge    b45 <mb2_hdr_begin-0xff4bb>
 b44:	7f 13                	jg     b59 <mb2_hdr_begin-0xff4a7>
 b46:	00 00                	add    %al,(%eax)
 b48:	03 05 00 49 13 00    	add    0x134900,%eax
 b4e:	00 04 18             	add    %al,(%eax,%ebx,1)
 b51:	00 00                	add    %al,(%eax)
 b53:	00 05 2e 01 3f 19    	add    %al,0x193f012e
 b59:	03 0e                	add    (%esi),%ecx
 b5b:	3a 0b                	cmp    (%ebx),%cl
 b5d:	3b 0b                	cmp    (%ebx),%ecx
 b5f:	39 21                	cmp    %esp,(%ecx)
 b61:	06                   	push   %es
 b62:	27                   	daa
 b63:	19 3c 19             	sbb    %edi,(%ecx,%ebx,1)
 b66:	01 13                	add    %edx,(%ebx)
 b68:	00 00                	add    %al,(%eax)
 b6a:	06                   	push   %es
 b6b:	2e 01 3f             	add    %edi,%cs:(%edi)
 b6e:	19 03                	sbb    %eax,(%ebx)
 b70:	0e                   	push   %cs
 b71:	3a 0b                	cmp    (%ebx),%cl
 b73:	3b 0b                	cmp    (%ebx),%ecx
 b75:	39 21                	cmp    %esp,(%ecx)
 b77:	06                   	push   %es
 b78:	3c 19                	cmp    $0x19,%al
 b7a:	01 13                	add    %edx,(%ebx)
 b7c:	00 00                	add    %al,(%eax)
 b7e:	07                   	pop    %es
 b7f:	11 01                	adc    %eax,(%ecx)
 b81:	25 0e 13 0b 03       	and    $0x30b130e,%eax
 b86:	1f                   	pop    %ds
 b87:	1b 1f                	sbb    (%edi),%ebx
 b89:	11 01                	adc    %eax,(%ecx)
 b8b:	12 06                	adc    (%esi),%al
 b8d:	10 17                	adc    %dl,(%edi)
 b8f:	00 00                	add    %al,(%eax)
 b91:	08 24 00             	or     %ah,(%eax,%eax,1)
 b94:	0b 0b                	or     (%ebx),%ecx
 b96:	3e 0b 03             	or     %ds:(%ebx),%eax
 b99:	08 00                	or     %al,(%eax)
 b9b:	00 09                	add    %cl,(%ecx)
 b9d:	2e 01 3f             	add    %edi,%cs:(%edi)
 ba0:	19 03                	sbb    %eax,(%ebx)
 ba2:	0e                   	push   %cs
 ba3:	3a 0b                	cmp    (%ebx),%cl
 ba5:	3b 0b                	cmp    (%ebx),%ecx
 ba7:	39 0b                	cmp    %ecx,(%ebx)
 ba9:	27                   	daa
 baa:	19 49 13             	sbb    %ecx,0x13(%ecx)
 bad:	3c 19                	cmp    $0x19,%al
 baf:	01 13                	add    %edx,(%ebx)
 bb1:	00 00                	add    %al,(%eax)
 bb3:	0a 0f                	or     (%edi),%cl
 bb5:	00 0b                	add    %cl,(%ebx)
 bb7:	0b 49 13             	or     0x13(%ecx),%ecx
 bba:	00 00                	add    %al,(%eax)
 bbc:	0b 37                	or     (%edi),%esi
 bbe:	00 49 13             	add    %cl,0x13(%ecx)
 bc1:	00 00                	add    %al,(%eax)
 bc3:	0c 26                	or     $0x26,%al
 bc5:	00 49 13             	add    %cl,0x13(%ecx)
 bc8:	00 00                	add    %al,(%eax)
 bca:	0d 2e 00 3f 19       	or     $0x193f002e,%eax
 bcf:	03 0e                	add    (%esi),%ecx
 bd1:	3a 0b                	cmp    (%ebx),%cl
 bd3:	3b 0b                	cmp    (%ebx),%ecx
 bd5:	39 0b                	cmp    %ecx,(%ebx)
 bd7:	27                   	daa
 bd8:	19 3c 19             	sbb    %edi,(%ecx,%ebx,1)
 bdb:	00 00                	add    %al,(%eax)
 bdd:	0e                   	push   %cs
 bde:	2e 01 3f             	add    %edi,%cs:(%edi)
 be1:	19 03                	sbb    %eax,(%ebx)
 be3:	0e                   	push   %cs
 be4:	3a 0b                	cmp    (%ebx),%cl
 be6:	3b 0b                	cmp    (%ebx),%ecx
 be8:	39 0b                	cmp    %ecx,(%ebx)
 bea:	27                   	daa
 beb:	19 11                	sbb    %edx,(%ecx)
 bed:	01 12                	add    %edx,(%edx)
 bef:	06                   	push   %es
 bf0:	40                   	inc    %eax
 bf1:	18 7a 19             	sbb    %bh,0x19(%edx)
 bf4:	00 00                	add    %al,(%eax)
 bf6:	00 01                	add    %al,(%ecx)
 bf8:	05 00 31 13 00       	add    $0x133100,%eax
 bfd:	00 02                	add    %al,(%edx)
 bff:	24 00                	and    $0x0,%al
 c01:	0b 0b                	or     (%ebx),%ecx
 c03:	3e 0b 03             	or     %ds:(%ebx),%eax
 c06:	0e                   	push   %cs
 c07:	00 00                	add    %al,(%eax)
 c09:	03 34 00             	add    (%eax,%eax,1),%esi
 c0c:	03 0e                	add    (%esi),%ecx
 c0e:	3a 21                	cmp    (%ecx),%ah
 c10:	01 3b                	add    %edi,(%ebx)
 c12:	0b 39                	or     (%ecx),%edi
 c14:	0b 49 13             	or     0x13(%ecx),%ecx
 c17:	02 17                	add    (%edi),%dl
 c19:	b7 42                	mov    $0x42,%bh
 c1b:	17                   	pop    %ss
 c1c:	00 00                	add    %al,(%eax)
 c1e:	04 48                	add    $0x48,%al
 c20:	00 7d 01             	add    %bh,0x1(%ebp)
 c23:	7f 13                	jg     c38 <mb2_hdr_begin-0xff3c8>
 c25:	00 00                	add    %al,(%eax)
 c27:	05 34 00 31 13       	add    $0x13310034,%eax
 c2c:	02 17                	add    (%edi),%dl
 c2e:	b7 42                	mov    $0x42,%bh
 c30:	17                   	pop    %ss
 c31:	00 00                	add    %al,(%eax)
 c33:	06                   	push   %es
 c34:	34 00                	xor    $0x0,%al
 c36:	03 08                	add    (%eax),%ecx
 c38:	3a 21                	cmp    (%ecx),%ah
 c3a:	01 3b                	add    %edi,(%ebx)
 c3c:	0b 39                	or     (%ecx),%edi
 c3e:	0b 49 13             	or     0x13(%ecx),%ecx
 c41:	02 17                	add    (%edi),%dl
 c43:	b7 42                	mov    $0x42,%bh
 c45:	17                   	pop    %ss
 c46:	00 00                	add    %al,(%eax)
 c48:	07                   	pop    %es
 c49:	16                   	push   %ss
 c4a:	00 03                	add    %al,(%ebx)
 c4c:	0e                   	push   %cs
 c4d:	3a 0b                	cmp    (%ebx),%cl
 c4f:	3b 0b                	cmp    (%ebx),%ecx
 c51:	39 0b                	cmp    %ecx,(%ebx)
 c53:	49                   	dec    %ecx
 c54:	13 00                	adc    (%eax),%eax
 c56:	00 08                	add    %cl,(%eax)
 c58:	34 00                	xor    $0x0,%al
 c5a:	03 0e                	add    (%esi),%ecx
 c5c:	3a 21                	cmp    (%ecx),%ah
 c5e:	01 3b                	add    %edi,(%ebx)
 c60:	0b 39                	or     (%ecx),%edi
 c62:	0b 49 13             	or     0x13(%ecx),%ecx
 c65:	02 18                	add    (%eax),%bl
 c67:	00 00                	add    %al,(%eax)
 c69:	09 1d 01 31 13 55    	or     %ebx,0x55133101
 c6f:	17                   	pop    %ss
 c70:	58                   	pop    %eax
 c71:	21 01                	and    %eax,(%ecx)
 c73:	59                   	pop    %ecx
 c74:	0b 57 21             	or     0x21(%edi),%edx
 c77:	09 01                	or     %eax,(%ecx)
 c79:	13 00                	adc    (%eax),%eax
 c7b:	00 0a                	add    %cl,(%edx)
 c7d:	0b 01                	or     (%ecx),%eax
 c7f:	31 13                	xor    %edx,(%ebx)
 c81:	55                   	push   %ebp
 c82:	17                   	pop    %ss
 c83:	00 00                	add    %al,(%eax)
 c85:	0b 0b                	or     (%ebx),%ecx
 c87:	01 31                	add    %esi,(%ecx)
 c89:	13 11                	adc    (%ecx),%edx
 c8b:	01 12                	add    %edx,(%edx)
 c8d:	06                   	push   %es
 c8e:	00 00                	add    %al,(%eax)
 c90:	0c 34                	or     $0x34,%al
 c92:	00 03                	add    %al,(%ebx)
 c94:	08 3a                	or     %bh,(%edx)
 c96:	21 01                	and    %eax,(%ecx)
 c98:	3b 0b                	cmp    (%ebx),%ecx
 c9a:	39 0b                	cmp    %ecx,(%ebx)
 c9c:	49                   	dec    %ecx
 c9d:	13 02                	adc    (%edx),%eax
 c9f:	18 00                	sbb    %al,(%eax)
 ca1:	00 0d 2e 01 3f 19    	add    %cl,0x193f012e
 ca7:	03 0e                	add    (%esi),%ecx
 ca9:	3a 0b                	cmp    (%ebx),%cl
 cab:	3b 0b                	cmp    (%ebx),%ecx
 cad:	39 0b                	cmp    %ecx,(%ebx)
 caf:	27                   	daa
 cb0:	19 49 13             	sbb    %ecx,0x13(%ecx)
 cb3:	3c 19                	cmp    $0x19,%al
 cb5:	01 13                	add    %edx,(%ebx)
 cb7:	00 00                	add    %al,(%eax)
 cb9:	0e                   	push   %cs
 cba:	05 00 49 13 00       	add    $0x134900,%eax
 cbf:	00 0f                	add    %cl,(%edi)
 cc1:	0f 00 0b             	str    (%ebx)
 cc4:	21 04 49             	and    %eax,(%ecx,%ecx,2)
 cc7:	13 00                	adc    (%eax),%eax
 cc9:	00 10                	add    %dl,(%eax)
 ccb:	0b 01                	or     (%ecx),%eax
 ccd:	55                   	push   %ebp
 cce:	17                   	pop    %ss
 ccf:	00 00                	add    %al,(%eax)
 cd1:	11 1d 01 31 13 11    	adc    %ebx,0x11133101
 cd7:	01 12                	add    %edx,(%edx)
 cd9:	06                   	push   %es
 cda:	58                   	pop    %eax
 cdb:	21 01                	and    %eax,(%ecx)
 cdd:	59                   	pop    %ecx
 cde:	0b 57 0b             	or     0xb(%edi),%edx
 ce1:	00 00                	add    %al,(%eax)
 ce3:	12 01                	adc    (%ecx),%al
 ce5:	01 49 13             	add    %ecx,0x13(%ecx)
 ce8:	01 13                	add    %edx,(%ebx)
 cea:	00 00                	add    %al,(%eax)
 cec:	13 21                	adc    (%ecx),%esp
 cee:	00 49 13             	add    %cl,0x13(%ecx)
 cf1:	2f                   	das
 cf2:	0b 00                	or     (%eax),%eax
 cf4:	00 14 05 00 03 0e 3a 	add    %dl,0x3a0e0300(,%eax,1)
 cfb:	21 01                	and    %eax,(%ecx)
 cfd:	3b 21                	cmp    (%ecx),%esp
 cff:	0a 39                	or     (%ecx),%bh
 d01:	0b 49 13             	or     0x13(%ecx),%ecx
 d04:	00 00                	add    %al,(%eax)
 d06:	15 11 01 25 0e       	adc    $0xe250111,%eax
 d0b:	13 0b                	adc    (%ebx),%ecx
 d0d:	03 1f                	add    (%edi),%ebx
 d0f:	1b 1f                	sbb    (%edi),%ebx
 d11:	11 01                	adc    %eax,(%ecx)
 d13:	12 06                	adc    (%esi),%al
 d15:	10 17                	adc    %dl,(%edi)
 d17:	00 00                	add    %al,(%eax)
 d19:	16                   	push   %ss
 d1a:	0f 00 0b             	str    (%ebx)
 d1d:	0b 03                	or     (%ebx),%eax
 d1f:	0e                   	push   %cs
 d20:	49                   	dec    %ecx
 d21:	13 00                	adc    (%eax),%eax
 d23:	00 17                	add    %dl,(%edi)
 d25:	26 00 49 13          	add    %cl,%es:0x13(%ecx)
 d29:	00 00                	add    %al,(%eax)
 d2b:	18 24 00             	sbb    %ah,(%eax,%eax,1)
 d2e:	0b 0b                	or     (%ebx),%ecx
 d30:	3e 0b 03             	or     %ds:(%ebx),%eax
 d33:	08 00                	or     %al,(%eax)
 d35:	00 19                	add    %bl,(%ecx)
 d37:	37                   	aaa
 d38:	00 49 13             	add    %cl,0x13(%ecx)
 d3b:	00 00                	add    %al,(%eax)
 d3d:	1a 2e                	sbb    (%esi),%ch
 d3f:	01 3f                	add    %edi,(%edi)
 d41:	19 03                	sbb    %eax,(%ebx)
 d43:	0e                   	push   %cs
 d44:	3a 0b                	cmp    (%ebx),%cl
 d46:	3b 0b                	cmp    (%ebx),%ecx
 d48:	39 0b                	cmp    %ecx,(%ebx)
 d4a:	27                   	daa
 d4b:	19 49 13             	sbb    %ecx,0x13(%ecx)
 d4e:	11 01                	adc    %eax,(%ecx)
 d50:	12 06                	adc    (%esi),%al
 d52:	40                   	inc    %eax
 d53:	18 7a 19             	sbb    %bh,0x19(%edx)
 d56:	01 13                	add    %edx,(%ebx)
 d58:	00 00                	add    %al,(%eax)
 d5a:	1b 05 00 03 0e 3a    	sbb    0x3a0e0300,%eax
 d60:	0b 3b                	or     (%ebx),%edi
 d62:	0b 39                	or     (%ecx),%edi
 d64:	0b 49 13             	or     0x13(%ecx),%ecx
 d67:	02 17                	add    (%edi),%dl
 d69:	b7 42                	mov    $0x42,%bh
 d6b:	17                   	pop    %ss
 d6c:	00 00                	add    %al,(%eax)
 d6e:	1c 18                	sbb    $0x18,%al
 d70:	00 00                	add    %al,(%eax)
 d72:	00 1d 0b 01 55 17    	add    %bl,0x1755010b
 d78:	01 13                	add    %edx,(%ebx)
 d7a:	00 00                	add    %al,(%eax)
 d7c:	1e                   	push   %ds
 d7d:	34 00                	xor    $0x0,%al
 d7f:	31 13                	xor    %edx,(%ebx)
 d81:	00 00                	add    %al,(%eax)
 d83:	1f                   	pop    %ds
 d84:	0b 01                	or     (%ecx),%eax
 d86:	11 01                	adc    %eax,(%ecx)
 d88:	12 06                	adc    (%esi),%al
 d8a:	01 13                	add    %edx,(%ebx)
 d8c:	00 00                	add    %al,(%eax)
 d8e:	20 34 00             	and    %dh,(%eax,%eax,1)
 d91:	03 0e                	add    (%esi),%ecx
 d93:	3a 0b                	cmp    (%ebx),%cl
 d95:	3b 0b                	cmp    (%ebx),%ecx
 d97:	39 0b                	cmp    %ecx,(%ebx)
 d99:	49                   	dec    %ecx
 d9a:	13 00                	adc    (%eax),%eax
 d9c:	00 21                	add    %ah,(%ecx)
 d9e:	1d 01 31 13 11       	sbb    $0x11133101,%eax
 da3:	01 12                	add    %edx,(%edx)
 da5:	06                   	push   %es
 da6:	58                   	pop    %eax
 da7:	0b 59 0b             	or     0xb(%ecx),%ebx
 daa:	57                   	push   %edi
 dab:	0b 01                	or     (%ecx),%eax
 dad:	13 00                	adc    (%eax),%eax
 daf:	00 22                	add    %ah,(%edx)
 db1:	0f 00 0b             	str    (%ebx)
 db4:	0b 00                	or     (%eax),%eax
 db6:	00 23                	add    %ah,(%ebx)
 db8:	2e 01 03             	add    %eax,%cs:(%ebx)
 dbb:	0e                   	push   %cs
 dbc:	3a 0b                	cmp    (%ebx),%cl
 dbe:	3b 0b                	cmp    (%ebx),%ecx
 dc0:	39 0b                	cmp    %ecx,(%ebx)
 dc2:	27                   	daa
 dc3:	19 49 13             	sbb    %ecx,0x13(%ecx)
 dc6:	20 0b                	and    %cl,(%ebx)
 dc8:	00 00                	add    %al,(%eax)
 dca:	24 0b                	and    $0xb,%al
 dcc:	01 00                	add    %eax,(%eax)
 dce:	00 25 34 00 03 08    	add    %ah,0x8030034
 dd4:	3a 0b                	cmp    (%ebx),%cl
 dd6:	3b 0b                	cmp    (%ebx),%ecx
 dd8:	39 0b                	cmp    %ecx,(%ebx)
 dda:	49                   	dec    %ecx
 ddb:	13 00                	adc    (%eax),%eax
 ddd:	00 00                	add    %al,(%eax)
 ddf:	01 24 00             	add    %esp,(%eax,%eax,1)
 de2:	0b 0b                	or     (%ebx),%ecx
 de4:	3e 0b 03             	or     %ds:(%ebx),%eax
 de7:	0e                   	push   %cs
 de8:	00 00                	add    %al,(%eax)
 dea:	02 05 00 49 13 00    	add    0x134900,%al
 df0:	00 03                	add    %al,(%ebx)
 df2:	11 01                	adc    %eax,(%ecx)
 df4:	25 0e 13 0b 03       	and    $0x30b130e,%eax
 df9:	1f                   	pop    %ds
 dfa:	1b 1f                	sbb    (%edi),%ebx
 dfc:	11 01                	adc    %eax,(%ecx)
 dfe:	12 06                	adc    (%esi),%al
 e00:	10 17                	adc    %dl,(%edi)
 e02:	00 00                	add    %al,(%eax)
 e04:	04 16                	add    $0x16,%al
 e06:	00 03                	add    %al,(%ebx)
 e08:	0e                   	push   %cs
 e09:	3a 0b                	cmp    (%ebx),%cl
 e0b:	3b 0b                	cmp    (%ebx),%ecx
 e0d:	39 0b                	cmp    %ecx,(%ebx)
 e0f:	49                   	dec    %ecx
 e10:	13 00                	adc    (%eax),%eax
 e12:	00 05 24 00 0b 0b    	add    %al,0xb0b0024
 e18:	3e 0b 03             	or     %ds:(%ebx),%eax
 e1b:	08 00                	or     %al,(%eax)
 e1d:	00 06                	add    %al,(%esi)
 e1f:	2e 01 3f             	add    %edi,%cs:(%edi)
 e22:	19 03                	sbb    %eax,(%ebx)
 e24:	0e                   	push   %cs
 e25:	3a 0b                	cmp    (%ebx),%cl
 e27:	3b 0b                	cmp    (%ebx),%ecx
 e29:	39 0b                	cmp    %ecx,(%ebx)
 e2b:	27                   	daa
 e2c:	19 3c 19             	sbb    %edi,(%ecx,%ebx,1)
 e2f:	01 13                	add    %edx,(%ebx)
 e31:	00 00                	add    %al,(%eax)
 e33:	07                   	pop    %es
 e34:	0f 00 0b             	str    (%ebx)
 e37:	0b 49 13             	or     0x13(%ecx),%ecx
 e3a:	00 00                	add    %al,(%eax)
 e3c:	08 26                	or     %ah,(%esi)
 e3e:	00 49 13             	add    %cl,0x13(%ecx)
 e41:	00 00                	add    %al,(%eax)
 e43:	09 2e                	or     %ebp,(%esi)
 e45:	01 3f                	add    %edi,(%edi)
 e47:	19 03                	sbb    %eax,(%ebx)
 e49:	0e                   	push   %cs
 e4a:	3a 0b                	cmp    (%ebx),%cl
 e4c:	3b 0b                	cmp    (%ebx),%ecx
 e4e:	39 0b                	cmp    %ecx,(%ebx)
 e50:	27                   	daa
 e51:	19 49 13             	sbb    %ecx,0x13(%ecx)
 e54:	11 01                	adc    %eax,(%ecx)
 e56:	12 06                	adc    (%esi),%al
 e58:	40                   	inc    %eax
 e59:	18 7a 19             	sbb    %bh,0x19(%edx)
 e5c:	00 00                	add    %al,(%eax)
 e5e:	0a 05 00 03 08 3a    	or     0x3a080300,%al
 e64:	0b 3b                	or     (%ebx),%edi
 e66:	0b 39                	or     (%ecx),%edi
 e68:	0b 49 13             	or     0x13(%ecx),%ecx
 e6b:	02 18                	add    (%eax),%bl
 e6d:	00 00                	add    %al,(%eax)
 e6f:	0b 34 00             	or     (%eax,%eax,1),%esi
 e72:	03 08                	add    (%eax),%ecx
 e74:	3a 0b                	cmp    (%ebx),%cl
 e76:	3b 0b                	cmp    (%ebx),%ecx
 e78:	39 0b                	cmp    %ecx,(%ebx)
 e7a:	49                   	dec    %ecx
 e7b:	13 02                	adc    (%edx),%eax
 e7d:	18 00                	sbb    %al,(%eax)
 e7f:	00 0c 48             	add    %cl,(%eax,%ecx,2)
 e82:	00 7d 01             	add    %bh,0x1(%ebp)
 e85:	7f 13                	jg     e9a <mb2_hdr_begin-0xff166>
 e87:	00 00                	add    %al,(%eax)
 e89:	00 01                	add    %al,(%ecx)
 e8b:	24 00                	and    $0x0,%al
 e8d:	0b 0b                	or     (%ebx),%ecx
 e8f:	3e 0b 03             	or     %ds:(%ebx),%eax
 e92:	0e                   	push   %cs
 e93:	00 00                	add    %al,(%eax)
 e95:	02 11                	add    (%ecx),%dl
 e97:	01 25 0e 13 0b 03    	add    %esp,0x30b130e
 e9d:	1f                   	pop    %ds
 e9e:	1b 1f                	sbb    (%edi),%ebx
 ea0:	11 01                	adc    %eax,(%ecx)
 ea2:	12 06                	adc    (%esi),%al
 ea4:	10 17                	adc    %dl,(%edi)
 ea6:	00 00                	add    %al,(%eax)
 ea8:	03 16                	add    (%esi),%edx
 eaa:	00 03                	add    %al,(%ebx)
 eac:	0e                   	push   %cs
 ead:	3a 0b                	cmp    (%ebx),%cl
 eaf:	3b 0b                	cmp    (%ebx),%ecx
 eb1:	39 0b                	cmp    %ecx,(%ebx)
 eb3:	49                   	dec    %ecx
 eb4:	13 00                	adc    (%eax),%eax
 eb6:	00 04 24             	add    %al,(%esp)
 eb9:	00 0b                	add    %cl,(%ebx)
 ebb:	0b 3e                	or     (%esi),%edi
 ebd:	0b 03                	or     (%ebx),%eax
 ebf:	08 00                	or     %al,(%eax)
 ec1:	00 05 2e 01 3f 19    	add    %al,0x193f012e
 ec7:	03 0e                	add    (%esi),%ecx
 ec9:	3a 0b                	cmp    (%ebx),%cl
 ecb:	3b 0b                	cmp    (%ebx),%ecx
 ecd:	39 0b                	cmp    %ecx,(%ebx)
 ecf:	27                   	daa
 ed0:	19 49 13             	sbb    %ecx,0x13(%ecx)
 ed3:	11 01                	adc    %eax,(%ecx)
 ed5:	12 06                	adc    (%esi),%al
 ed7:	40                   	inc    %eax
 ed8:	18 7a 19             	sbb    %bh,0x19(%edx)
 edb:	01 13                	add    %edx,(%ebx)
 edd:	00 00                	add    %al,(%eax)
 edf:	06                   	push   %es
 ee0:	05 00 03 08 3a       	add    $0x3a080300,%eax
 ee5:	0b 3b                	or     (%ebx),%edi
 ee7:	0b 39                	or     (%ecx),%edi
 ee9:	0b 49 13             	or     0x13(%ecx),%ecx
 eec:	02 17                	add    (%edi),%dl
 eee:	b7 42                	mov    $0x42,%bh
 ef0:	17                   	pop    %ss
 ef1:	00 00                	add    %al,(%eax)
 ef3:	07                   	pop    %es
 ef4:	34 00                	xor    $0x0,%al
 ef6:	03 08                	add    (%eax),%ecx
 ef8:	3a 0b                	cmp    (%ebx),%cl
 efa:	3b 0b                	cmp    (%ebx),%ecx
 efc:	39 0b                	cmp    %ecx,(%ebx)
 efe:	49                   	dec    %ecx
 eff:	13 02                	adc    (%edx),%eax
 f01:	17                   	pop    %ss
 f02:	b7 42                	mov    $0x42,%bh
 f04:	17                   	pop    %ss
 f05:	00 00                	add    %al,(%eax)
 f07:	08 0f                	or     %cl,(%edi)
 f09:	00 0b                	add    %cl,(%ebx)
 f0b:	0b 49 13             	or     0x13(%ecx),%ecx
 f0e:	00 00                	add    %al,(%eax)
 f10:	09 26                	or     %esp,(%esi)
 f12:	00 49 13             	add    %cl,0x13(%ecx)
 f15:	00 00                	add    %al,(%eax)
 f17:	00 01                	add    %al,(%ecx)
 f19:	11 00                	adc    %eax,(%eax)
 f1b:	10 17                	adc    %dl,(%edi)
 f1d:	55                   	push   %ebp
 f1e:	17                   	pop    %ss
 f1f:	03 0e                	add    (%esi),%ecx
 f21:	1b 0e                	sbb    (%esi),%ecx
 f23:	25 0e 13 05 00       	and    $0x5130e,%eax
	...

Disassembly of section .debug_aranges:

00000000 <.debug_aranges>:
   0:	24 00                	and    $0x0,%al
   2:	00 00                	add    %al,(%eax)
   4:	02 00                	add    (%eax),%al
   6:	00 00                	add    %al,(%eax)
   8:	00 00                	add    %al,(%eax)
   a:	04 00                	add    $0x0,%al
   c:	00 00                	add    %al,(%eax)
   e:	00 00                	add    %al,(%eax)
  10:	89 0f                	mov    %ecx,(%edi)
  12:	10 00                	adc    %al,(%eax)
  14:	03 00                	add    (%eax),%eax
  16:	00 00                	add    %al,(%eax)
  18:	98                   	cwtl
  19:	0f 10 00             	movups (%eax),%xmm0
  1c:	03 00                	add    (%eax),%eax
	...
  26:	00 00                	add    %al,(%eax)
  28:	1c 00                	sbb    $0x0,%al
  2a:	00 00                	add    %al,(%eax)
  2c:	02 00                	add    (%eax),%al
  2e:	23 00                	and    (%eax),%eax
  30:	00 00                	add    %al,(%eax)
  32:	04 00                	add    $0x0,%al
  34:	00 00                	add    %al,(%eax)
  36:	00 00                	add    %al,(%eax)
  38:	65 01 10             	add    %edx,%gs:(%eax)
  3b:	00 0e                	add    %cl,(%esi)
	...
  45:	00 00                	add    %al,(%eax)
  47:	00 1c 00             	add    %bl,(%eax,%eax,1)
  4a:	00 00                	add    %al,(%eax)
  4c:	02 00                	add    (%eax),%al
  4e:	54                   	push   %esp
  4f:	00 00                	add    %al,(%eax)
  51:	00 04 00             	add    %al,(%eax,%eax,1)
  54:	00 00                	add    %al,(%eax)
  56:	00 00                	add    %al,(%eax)
  58:	80 01 10             	addb   $0x10,(%ecx)
  5b:	00 2d 02 00 00 00    	add    %ch,0x2
  61:	00 00                	add    %al,(%eax)
  63:	00 00                	add    %al,(%eax)
  65:	00 00                	add    %al,(%eax)
  67:	00 1c 00             	add    %bl,(%eax,%eax,1)
  6a:	00 00                	add    %al,(%eax)
  6c:	02 00                	add    (%eax),%al
  6e:	de 05 00 00 04 00    	fiadds 0x40000
  74:	00 00                	add    %al,(%eax)
  76:	00 00                	add    %al,(%eax)
  78:	d0 03                	rolb   $1,(%ebx)
  7a:	10 00                	adc    %al,(%eax)
  7c:	d1 00                	roll   $1,(%eax)
	...
  86:	00 00                	add    %al,(%eax)
  88:	1c 00                	sbb    $0x0,%al
  8a:	00 00                	add    %al,(%eax)
  8c:	02 00                	add    (%eax),%al
  8e:	5c                   	pop    %esp
  8f:	08 00                	or     %al,(%eax)
  91:	00 04 00             	add    %al,(%eax,%eax,1)
  94:	00 00                	add    %al,(%eax)
  96:	00 00                	add    %al,(%eax)
  98:	b0 04                	mov    $0x4,%al
  9a:	10 00                	adc    %al,(%eax)
  9c:	e9 01 00 00 00       	jmp    a2 <mb2_hdr_begin-0xfff5e>
  a1:	00 00                	add    %al,(%eax)
  a3:	00 00                	add    %al,(%eax)
  a5:	00 00                	add    %al,(%eax)
  a7:	00 1c 00             	add    %bl,(%eax,%eax,1)
  aa:	00 00                	add    %al,(%eax)
  ac:	02 00                	add    (%eax),%al
  ae:	9f                   	lahf
  af:	0b 00                	or     (%eax),%eax
  b1:	00 04 00             	add    %al,(%eax,%eax,1)
  b4:	00 00                	add    %al,(%eax)
  b6:	00 00                	add    %al,(%eax)
  b8:	a0 06 10 00 43       	mov    0x43001006,%al
	...
  c5:	00 00                	add    %al,(%eax)
  c7:	00 1c 00             	add    %bl,(%eax,%eax,1)
  ca:	00 00                	add    %al,(%eax)
  cc:	02 00                	add    (%eax),%al
  ce:	79 0c                	jns    dc <mb2_hdr_begin-0xfff24>
  d0:	00 00                	add    %al,(%eax)
  d2:	04 00                	add    $0x0,%al
  d4:	00 00                	add    %al,(%eax)
  d6:	00 00                	add    %al,(%eax)
  d8:	f0 06                	lock push %es
  da:	10 00                	adc    %al,(%eax)
  dc:	a0 01 00 00 00       	mov    0x1,%al
  e1:	00 00                	add    %al,(%eax)
  e3:	00 00                	add    %al,(%eax)
  e5:	00 00                	add    %al,(%eax)
  e7:	00 1c 00             	add    %bl,(%eax,%eax,1)
  ea:	00 00                	add    %al,(%eax)
  ec:	02 00                	add    (%eax),%al
  ee:	4a                   	dec    %edx
  ef:	0f 00 00             	sldt   (%eax)
  f2:	04 00                	add    $0x0,%al
  f4:	00 00                	add    %al,(%eax)
  f6:	00 00                	add    %al,(%eax)
  f8:	d0 08                	rorb   $1,(%eax)
  fa:	10 00                	adc    %al,(%eax)
  fc:	47                   	inc    %edi
	...
 105:	00 00                	add    %al,(%eax)
 107:	00 1c 00             	add    %bl,(%eax,%eax,1)
 10a:	00 00                	add    %al,(%eax)
 10c:	02 00                	add    (%eax),%al
 10e:	6a 10                	push   $0x10
 110:	00 00                	add    %al,(%eax)
 112:	04 00                	add    $0x0,%al
 114:	00 00                	add    %al,(%eax)
 116:	00 00                	add    %al,(%eax)
 118:	20 09                	and    %cl,(%ecx)
 11a:	10 00                	adc    %al,(%eax)
 11c:	25 00 00 00 00       	and    $0x0,%eax
 121:	00 00                	add    %al,(%eax)
 123:	00 00                	add    %al,(%eax)
 125:	00 00                	add    %al,(%eax)
 127:	00 1c 00             	add    %bl,(%eax,%eax,1)
 12a:	00 00                	add    %al,(%eax)
 12c:	02 00                	add    (%eax),%al
 12e:	b4 11                	mov    $0x11,%ah
 130:	00 00                	add    %al,(%eax)
 132:	04 00                	add    $0x0,%al
 134:	00 00                	add    %al,(%eax)
 136:	00 00                	add    %al,(%eax)
 138:	50                   	push   %eax
 139:	09 10                	or     %edx,(%eax)
 13b:	00 23                	add    %ah,(%ebx)
 13d:	01 00                	add    %eax,(%eax)
	...
 147:	00 1c 00             	add    %bl,(%eax,%eax,1)
 14a:	00 00                	add    %al,(%eax)
 14c:	02 00                	add    (%eax),%al
 14e:	b1 13                	mov    $0x13,%cl
 150:	00 00                	add    %al,(%eax)
 152:	04 00                	add    $0x0,%al
 154:	00 00                	add    %al,(%eax)
 156:	00 00                	add    %al,(%eax)
 158:	80 0a 10             	orb    $0x10,(%edx)
 15b:	00 73 00             	add    %dh,0x0(%ebx)
	...
 166:	00 00                	add    %al,(%eax)
 168:	1c 00                	sbb    $0x0,%al
 16a:	00 00                	add    %al,(%eax)
 16c:	02 00                	add    (%eax),%al
 16e:	10 15 00 00 04 00    	adc    %dl,0x40000
 174:	00 00                	add    %al,(%eax)
 176:	00 00                	add    %al,(%eax)
 178:	00 0b                	add    %cl,(%ebx)
 17a:	10 00                	adc    %al,(%eax)
 17c:	09 04 00             	or     %eax,(%eax,%eax,1)
	...
 187:	00 1c 00             	add    %bl,(%eax,%eax,1)
 18a:	00 00                	add    %al,(%eax)
 18c:	02 00                	add    (%eax),%al
 18e:	0d 1a 00 00 04       	or     $0x400001a,%eax
 193:	00 00                	add    %al,(%eax)
 195:	00 00                	add    %al,(%eax)
 197:	00 10                	add    %dl,(%eax)
 199:	0f 10 00             	movups (%eax),%xmm0
 19c:	1f                   	pop    %ds
	...
 1a5:	00 00                	add    %al,(%eax)
 1a7:	00 1c 00             	add    %bl,(%eax,%eax,1)
 1aa:	00 00                	add    %al,(%eax)
 1ac:	02 00                	add    (%eax),%al
 1ae:	ce                   	into
 1af:	1a 00                	sbb    (%eax),%al
 1b1:	00 04 00             	add    %al,(%eax,%eax,1)
 1b4:	00 00                	add    %al,(%eax)
 1b6:	00 00                	add    %al,(%eax)
 1b8:	30 0f                	xor    %cl,(%edi)
 1ba:	10 00                	adc    %al,(%eax)
 1bc:	1b 00                	sbb    (%eax),%eax
	...
 1c6:	00 00                	add    %al,(%eax)
 1c8:	24 00                	and    $0x0,%al
 1ca:	00 00                	add    %al,(%eax)
 1cc:	02 00                	add    (%eax),%al
 1ce:	80 1b 00             	sbbb   $0x0,(%ebx)
 1d1:	00 04 00             	add    %al,(%eax,%eax,1)
 1d4:	00 00                	add    %al,(%eax)
 1d6:	00 00                	add    %al,(%eax)
 1d8:	96                   	xchg   %eax,%esi
 1d9:	0f 10 00             	movups (%eax),%xmm0
 1dc:	02 00                	add    (%eax),%al
 1de:	00 00                	add    %al,(%eax)
 1e0:	a0 0f 10 00 02       	mov    0x200100f,%al
	...

Disassembly of section .debug_str:

00000000 <.debug_str>:
   0:	61                   	popa
   1:	72 63                	jb     66 <mb2_hdr_begin-0xfff9a>
   3:	68 2f 69 33 38       	push   $0x3833692f
   8:	36 2f                	ss das
   a:	63 72 74             	arpl   %esi,0x74(%edx)
   d:	69 2e 53 00 2f 68    	imul   $0x682f0053,(%esi),%ebp
  13:	6f                   	outsl  %ds:(%esi),(%dx)
  14:	6d                   	insl   (%dx),%es:(%edi)
  15:	65 2f                	gs das
  17:	6a 75                	push   $0x75
  19:	61                   	popa
  1a:	6e                   	outsb  %ds:(%esi),(%dx)
  1b:	6d                   	insl   (%dx),%es:(%edi)
  1c:	61                   	popa
  1d:	2f                   	das
  1e:	46                   	inc    %esi
  1f:	61                   	popa
  20:	63 75 6c             	arpl   %esi,0x6c(%ebp)
  23:	74 61                	je     86 <mb2_hdr_begin-0xfff7a>
  25:	64 2f                	fs das
  27:	43                   	inc    %ebx
  28:	75 79                	jne    a3 <mb2_hdr_begin-0xfff5d>
  2a:	4f                   	dec    %edi
  2b:	53                   	push   %ebx
  2c:	2f                   	das
  2d:	6b 65 72 6e          	imul   $0x6e,0x72(%ebp),%esp
  31:	65 6c                	gs insb (%dx),%es:(%edi)
  33:	00 47 4e             	add    %al,0x4e(%edi)
  36:	55                   	push   %ebp
  37:	20 41 53             	and    %al,0x53(%ecx)
  3a:	20 32                	and    %dh,(%edx)
  3c:	2e 34 32             	cs xor $0x32,%al
  3f:	2e 35 30 00 61 72    	cs xor $0x72610030,%eax
  45:	63 68 2f             	arpl   %ebp,0x2f(%eax)
  48:	69 33 38 36 2f 62    	imul   $0x622f3638,(%ebx),%esi
  4e:	6f                   	outsl  %ds:(%esi),(%dx)
  4f:	6f                   	outsl  %ds:(%esi),(%dx)
  50:	74 2e                	je     80 <mb2_hdr_begin-0xfff80>
  52:	53                   	push   %ebx
  53:	00 5f 73             	add    %bl,0x73(%edi)
  56:	74 61                	je     b9 <mb2_hdr_begin-0xfff47>
  58:	72 74                	jb     ce <mb2_hdr_begin-0xfff32>
  5a:	00 74 65 72          	add    %dh,0x72(%ebp,%eiz,2)
  5e:	6d                   	insl   (%dx),%es:(%edi)
  5f:	69 6e 61 6c 5f 77 72 	imul   $0x72775f6c,0x61(%esi),%ebp
  66:	69 74 65 73 74 72 69 	imul   $0x6e697274,0x73(%ebp,%eiz,2),%esi
  6d:	6e 
  6e:	67 00 74 65          	add    %dh,0x65(%si)
  72:	72 6d                	jb     e1 <mb2_hdr_begin-0xfff1f>
  74:	69 6e 61 6c 5f 70 75 	imul   $0x75705f6c,0x61(%esi),%ebp
  7b:	74 63                	je     e0 <mb2_hdr_begin-0xfff20>
  7d:	68 61 72 00 73       	push   $0x73007261
  82:	69 7a 65 5f 74 00 74 	imul   $0x7400745f,0x65(%edx),%edi
  89:	65 72 6d             	gs jb  f9 <mb2_hdr_begin-0xfff07>
  8c:	69 6e 61 6c 5f 62 75 	imul   $0x75625f6c,0x61(%esi),%ebp
  93:	66 66 65 72 00       	data16 data16 gs jb 98 <mb2_hdr_begin-0xfff68>
  98:	5f                   	pop    %edi
  99:	46                   	inc    %esi
  9a:	6c                   	insb   (%dx),%es:(%edi)
  9b:	6f                   	outsl  %ds:(%esi),(%dx)
  9c:	61                   	popa
  9d:	74 31                	je     d0 <mb2_hdr_begin-0xfff30>
  9f:	32 38                	xor    (%eax),%bh
  a1:	00 47 4e             	add    %al,0x4e(%edi)
  a4:	55                   	push   %ebp
  a5:	20 43 31             	and    %al,0x31(%ebx)
  a8:	31 20                	xor    %esp,(%eax)
  aa:	31 35 2e 30 2e 30    	xor    %esi,0x302e302e
  b0:	20 32                	and    %dh,(%edx)
  b2:	30 32                	xor    %dh,(%edx)
  b4:	34 30                	xor    $0x30,%al
  b6:	35 31 36 20 28       	xor    $0x28203631,%eax
  bb:	65 78 70             	gs js  12e <mb2_hdr_begin-0xffed2>
  be:	65 72 69             	gs jb  12a <mb2_hdr_begin-0xffed6>
  c1:	6d                   	insl   (%dx),%es:(%edi)
  c2:	65 6e                	outsb  %gs:(%esi),(%dx)
  c4:	74 61                	je     127 <mb2_hdr_begin-0xffed9>
  c6:	6c                   	insb   (%dx),%es:(%edi)
  c7:	29 20                	sub    %esp,(%eax)
  c9:	2d 6d 74 75 6e       	sub    $0x6e75746d,%eax
  ce:	65 3d 67 65 6e 65    	gs cmp $0x656e6567,%eax
  d4:	72 69                	jb     13f <mb2_hdr_begin-0xffec1>
  d6:	63 20                	arpl   %esp,(%eax)
  d8:	2d 6d 61 72 63       	sub    $0x6372616d,%eax
  dd:	68 3d 70 65 6e       	push   $0x6e65703d
  e2:	74 69                	je     14d <mb2_hdr_begin-0xffeb3>
  e4:	75 6d                	jne    153 <mb2_hdr_begin-0xffead>
  e6:	70 72                	jo     15a <mb2_hdr_begin-0xffea6>
  e8:	6f                   	outsl  %ds:(%esi),(%dx)
  e9:	20 2d 67 20 2d 67    	and    %ch,0x672d2067
  ef:	20 2d 4f 32 20 2d    	and    %ch,0x2d20324f
  f5:	73 74                	jae    16b <mb2_hdr_begin-0xffe95>
  f7:	64 3d 67 6e 75 31    	fs cmp $0x31756e67,%eax
  fd:	31 20                	xor    %esp,(%eax)
  ff:	2d 66 66 72 65       	sub    $0x65726666,%eax
 104:	65 73 74             	gs jae 17b <mb2_hdr_begin-0xffe85>
 107:	61                   	popa
 108:	6e                   	outsb  %ds:(%esi),(%dx)
 109:	64 69 6e 67 00 56 47 	imul   $0x41475600,%fs:0x67(%esi),%ebp
 110:	41 
 111:	5f                   	pop    %edi
 112:	4d                   	dec    %ebp
 113:	45                   	inc    %ebp
 114:	4d                   	dec    %ebp
 115:	4f                   	dec    %edi
 116:	52                   	push   %edx
 117:	59                   	pop    %ecx
 118:	00 76 67             	add    %dh,0x67(%esi)
 11b:	61                   	popa
 11c:	5f                   	pop    %edi
 11d:	63 6f 6c             	arpl   %ebp,0x6c(%edi)
 120:	6f                   	outsl  %ds:(%esi),(%dx)
 121:	72 00                	jb     123 <mb2_hdr_begin-0xffedd>
 123:	74 65                	je     18a <mb2_hdr_begin-0xffe76>
 125:	72 6d                	jb     194 <mb2_hdr_begin-0xffe6c>
 127:	69 6e 61 6c 5f 63 6f 	imul   $0x6f635f6c,0x61(%esi),%ebp
 12e:	6c                   	insb   (%dx),%es:(%edi)
 12f:	75 6d                	jne    19e <mb2_hdr_begin-0xffe62>
 131:	6e                   	outsb  %ds:(%esi),(%dx)
 132:	00 56 47             	add    %dl,0x47(%esi)
 135:	41                   	inc    %ecx
 136:	5f                   	pop    %edi
 137:	43                   	inc    %ebx
 138:	4f                   	dec    %edi
 139:	4c                   	dec    %esp
 13a:	4f                   	dec    %edi
 13b:	52                   	push   %edx
 13c:	5f                   	pop    %edi
 13d:	4d                   	dec    %ebp
 13e:	41                   	inc    %ecx
 13f:	47                   	inc    %edi
 140:	45                   	inc    %ebp
 141:	4e                   	dec    %esi
 142:	54                   	push   %esp
 143:	41                   	inc    %ecx
 144:	00 73 74             	add    %dh,0x74(%ebx)
 147:	72 6c                	jb     1b5 <mb2_hdr_begin-0xffe4b>
 149:	65 6e                	outsb  %gs:(%esi),(%dx)
 14b:	00 56 47             	add    %dl,0x47(%esi)
 14e:	41                   	inc    %ecx
 14f:	5f                   	pop    %edi
 150:	43                   	inc    %ebx
 151:	4f                   	dec    %edi
 152:	4c                   	dec    %esp
 153:	4f                   	dec    %edi
 154:	52                   	push   %edx
 155:	5f                   	pop    %edi
 156:	4c                   	dec    %esp
 157:	49                   	dec    %ecx
 158:	47                   	inc    %edi
 159:	48                   	dec    %eax
 15a:	54                   	push   %esp
 15b:	5f                   	pop    %edi
 15c:	47                   	inc    %edi
 15d:	52                   	push   %edx
 15e:	45                   	inc    %ebp
 15f:	59                   	pop    %ecx
 160:	00 76 67             	add    %dh,0x67(%esi)
 163:	61                   	popa
 164:	5f                   	pop    %edi
 165:	65 6e                	outsb  %gs:(%esi),(%dx)
 167:	74 72                	je     1db <mb2_hdr_begin-0xffe25>
 169:	79 00                	jns    16b <mb2_hdr_begin-0xffe95>
 16b:	75 6e                	jne    1db <mb2_hdr_begin-0xffe25>
 16d:	73 69                	jae    1d8 <mb2_hdr_begin-0xffe28>
 16f:	67 6e                	outsb  %ds:(%si),(%dx)
 171:	65 64 20 63 68       	gs and %ah,%fs:0x68(%ebx)
 176:	61                   	popa
 177:	72 00                	jb     179 <mb2_hdr_begin-0xffe87>
 179:	76 67                	jbe    1e2 <mb2_hdr_begin-0xffe1e>
 17b:	61                   	popa
 17c:	5f                   	pop    %edi
 17d:	65 6e                	outsb  %gs:(%esi),(%dx)
 17f:	74 72                	je     1f3 <mb2_hdr_begin-0xffe0d>
 181:	79 5f                	jns    1e2 <mb2_hdr_begin-0xffe1e>
 183:	63 6f 6c             	arpl   %ebp,0x6c(%edi)
 186:	6f                   	outsl  %ds:(%esi),(%dx)
 187:	72 00                	jb     189 <mb2_hdr_begin-0xffe77>
 189:	73 68                	jae    1f3 <mb2_hdr_begin-0xffe0d>
 18b:	6f                   	outsl  %ds:(%esi),(%dx)
 18c:	72 74                	jb     202 <mb2_hdr_begin-0xffdfe>
 18e:	20 75 6e             	and    %dh,0x6e(%ebp)
 191:	73 69                	jae    1fc <mb2_hdr_begin-0xffe04>
 193:	67 6e                	outsb  %ds:(%si),(%dx)
 195:	65 64 20 69 6e       	gs and %ch,%fs:0x6e(%ecx)
 19a:	74 00                	je     19c <mb2_hdr_begin-0xffe64>
 19c:	56                   	push   %esi
 19d:	47                   	inc    %edi
 19e:	41                   	inc    %ecx
 19f:	5f                   	pop    %edi
 1a0:	43                   	inc    %ebx
 1a1:	4f                   	dec    %edi
 1a2:	4c                   	dec    %esp
 1a3:	4f                   	dec    %edi
 1a4:	52                   	push   %edx
 1a5:	5f                   	pop    %edi
 1a6:	52                   	push   %edx
 1a7:	45                   	inc    %ebp
 1a8:	44                   	inc    %esp
 1a9:	00 56 47             	add    %dl,0x47(%esi)
 1ac:	41                   	inc    %ecx
 1ad:	5f                   	pop    %edi
 1ae:	43                   	inc    %ebx
 1af:	4f                   	dec    %edi
 1b0:	4c                   	dec    %esp
 1b1:	4f                   	dec    %edi
 1b2:	52                   	push   %edx
 1b3:	5f                   	pop    %edi
 1b4:	4c                   	dec    %esp
 1b5:	49                   	dec    %ecx
 1b6:	47                   	inc    %edi
 1b7:	48                   	dec    %eax
 1b8:	54                   	push   %esp
 1b9:	5f                   	pop    %edi
 1ba:	42                   	inc    %edx
 1bb:	4c                   	dec    %esp
 1bc:	55                   	push   %ebp
 1bd:	45                   	inc    %ebp
 1be:	00 74 65 72          	add    %dh,0x72(%ebp,%eiz,2)
 1c2:	6d                   	insl   (%dx),%es:(%edi)
 1c3:	69 6e 61 6c 5f 63 6f 	imul   $0x6f635f6c,0x61(%esi),%ebp
 1ca:	6c                   	insb   (%dx),%es:(%edi)
 1cb:	6f                   	outsl  %ds:(%esi),(%dx)
 1cc:	72 00                	jb     1ce <mb2_hdr_begin-0xffe32>
 1ce:	74 65                	je     235 <mb2_hdr_begin-0xffdcb>
 1d0:	72 6d                	jb     23f <mb2_hdr_begin-0xffdc1>
 1d2:	69 6e 61 6c 5f 77 72 	imul   $0x72775f6c,0x61(%esi),%ebp
 1d9:	69 74 65 00 56 47 41 	imul   $0x5f414756,0x0(%ebp,%eiz,2),%esi
 1e0:	5f 
 1e1:	43                   	inc    %ebx
 1e2:	4f                   	dec    %edi
 1e3:	4c                   	dec    %esp
 1e4:	4f                   	dec    %edi
 1e5:	52                   	push   %edx
 1e6:	5f                   	pop    %edi
 1e7:	42                   	inc    %edx
 1e8:	4c                   	dec    %esp
 1e9:	55                   	push   %ebp
 1ea:	45                   	inc    %ebp
 1eb:	00 56 47             	add    %dl,0x47(%esi)
 1ee:	41                   	inc    %ecx
 1ef:	5f                   	pop    %edi
 1f0:	43                   	inc    %ebx
 1f1:	4f                   	dec    %edi
 1f2:	4c                   	dec    %esp
 1f3:	4f                   	dec    %edi
 1f4:	52                   	push   %edx
 1f5:	5f                   	pop    %edi
 1f6:	4c                   	dec    %esp
 1f7:	49                   	dec    %ecx
 1f8:	47                   	inc    %edi
 1f9:	48                   	dec    %eax
 1fa:	54                   	push   %esp
 1fb:	5f                   	pop    %edi
 1fc:	52                   	push   %edx
 1fd:	45                   	inc    %ebp
 1fe:	44                   	inc    %esp
 1ff:	00 56 47             	add    %dl,0x47(%esi)
 202:	41                   	inc    %ecx
 203:	5f                   	pop    %edi
 204:	43                   	inc    %ebx
 205:	4f                   	dec    %edi
 206:	4c                   	dec    %esp
 207:	4f                   	dec    %edi
 208:	52                   	push   %edx
 209:	5f                   	pop    %edi
 20a:	4c                   	dec    %esp
 20b:	49                   	dec    %ecx
 20c:	47                   	inc    %edi
 20d:	48                   	dec    %eax
 20e:	54                   	push   %esp
 20f:	5f                   	pop    %edi
 210:	47                   	inc    %edi
 211:	52                   	push   %edx
 212:	45                   	inc    %ebp
 213:	45                   	inc    %ebp
 214:	4e                   	dec    %esi
 215:	00 56 47             	add    %dl,0x47(%esi)
 218:	41                   	inc    %ecx
 219:	5f                   	pop    %edi
 21a:	43                   	inc    %ebx
 21b:	4f                   	dec    %edi
 21c:	4c                   	dec    %esp
 21d:	4f                   	dec    %edi
 21e:	52                   	push   %edx
 21f:	5f                   	pop    %edi
 220:	44                   	inc    %esp
 221:	41                   	inc    %ecx
 222:	52                   	push   %edx
 223:	4b                   	dec    %ebx
 224:	5f                   	pop    %edi
 225:	47                   	inc    %edi
 226:	52                   	push   %edx
 227:	45                   	inc    %ebp
 228:	59                   	pop    %ecx
 229:	00 56 47             	add    %dl,0x47(%esi)
 22c:	41                   	inc    %ecx
 22d:	5f                   	pop    %edi
 22e:	48                   	dec    %eax
 22f:	45                   	inc    %ebp
 230:	49                   	dec    %ecx
 231:	47                   	inc    %edi
 232:	48                   	dec    %eax
 233:	54                   	push   %esp
 234:	00 73 69             	add    %dh,0x69(%ebx)
 237:	7a 65                	jp     29e <mb2_hdr_begin-0xffd62>
 239:	00 6c 6f 6e          	add    %ch,0x6e(%edi,%ebp,2)
 23d:	67 20 6c 6f          	and    %ch,0x6f(%si)
 241:	6e                   	outsb  %ds:(%esi),(%dx)
 242:	67 20 75 6e          	and    %dh,0x6e(%di)
 246:	73 69                	jae    2b1 <mb2_hdr_begin-0xffd4f>
 248:	67 6e                	outsb  %ds:(%si),(%dx)
 24a:	65 64 20 69 6e       	gs and %ch,%fs:0x6e(%ecx)
 24f:	74 00                	je     251 <mb2_hdr_begin-0xffdaf>
 251:	75 69                	jne    2bc <mb2_hdr_begin-0xffd44>
 253:	6e                   	outsb  %ds:(%esi),(%dx)
 254:	74 38                	je     28e <mb2_hdr_begin-0xffd72>
 256:	5f                   	pop    %edi
 257:	74 00                	je     259 <mb2_hdr_begin-0xffda7>
 259:	56                   	push   %esi
 25a:	47                   	inc    %edi
 25b:	41                   	inc    %ecx
 25c:	5f                   	pop    %edi
 25d:	43                   	inc    %ebx
 25e:	4f                   	dec    %edi
 25f:	4c                   	dec    %esp
 260:	4f                   	dec    %edi
 261:	52                   	push   %edx
 262:	5f                   	pop    %edi
 263:	42                   	inc    %edx
 264:	52                   	push   %edx
 265:	4f                   	dec    %edi
 266:	57                   	push   %edi
 267:	4e                   	dec    %esi
 268:	00 56 47             	add    %dl,0x47(%esi)
 26b:	41                   	inc    %ecx
 26c:	5f                   	pop    %edi
 26d:	43                   	inc    %ebx
 26e:	4f                   	dec    %edi
 26f:	4c                   	dec    %esp
 270:	4f                   	dec    %edi
 271:	52                   	push   %edx
 272:	5f                   	pop    %edi
 273:	4c                   	dec    %esp
 274:	49                   	dec    %ecx
 275:	47                   	inc    %edi
 276:	48                   	dec    %eax
 277:	54                   	push   %esp
 278:	5f                   	pop    %edi
 279:	43                   	inc    %ebx
 27a:	59                   	pop    %ecx
 27b:	41                   	inc    %ecx
 27c:	4e                   	dec    %esi
 27d:	00 56 47             	add    %dl,0x47(%esi)
 280:	41                   	inc    %ecx
 281:	5f                   	pop    %edi
 282:	43                   	inc    %ebx
 283:	4f                   	dec    %edi
 284:	4c                   	dec    %esp
 285:	4f                   	dec    %edi
 286:	52                   	push   %edx
 287:	5f                   	pop    %edi
 288:	4c                   	dec    %esp
 289:	49                   	dec    %ecx
 28a:	47                   	inc    %edi
 28b:	48                   	dec    %eax
 28c:	54                   	push   %esp
 28d:	5f                   	pop    %edi
 28e:	4d                   	dec    %ebp
 28f:	41                   	inc    %ecx
 290:	47                   	inc    %edi
 291:	45                   	inc    %ebp
 292:	4e                   	dec    %esi
 293:	54                   	push   %esp
 294:	41                   	inc    %ecx
 295:	00 56 47             	add    %dl,0x47(%esi)
 298:	41                   	inc    %ecx
 299:	5f                   	pop    %edi
 29a:	43                   	inc    %ebx
 29b:	4f                   	dec    %edi
 29c:	4c                   	dec    %esp
 29d:	4f                   	dec    %edi
 29e:	52                   	push   %edx
 29f:	5f                   	pop    %edi
 2a0:	57                   	push   %edi
 2a1:	48                   	dec    %eax
 2a2:	49                   	dec    %ecx
 2a3:	54                   	push   %esp
 2a4:	45                   	inc    %ebp
 2a5:	00 74 65 72          	add    %dh,0x72(%ebp,%eiz,2)
 2a9:	6d                   	insl   (%dx),%es:(%edi)
 2aa:	69 6e 61 6c 5f 69 6e 	imul   $0x6e695f6c,0x61(%esi),%ebp
 2b1:	69 74 69 61 6c 69 7a 	imul   $0x657a696c,0x61(%ecx,%ebp,2),%esi
 2b8:	65 
 2b9:	00 56 47             	add    %dl,0x47(%esi)
 2bc:	41                   	inc    %ecx
 2bd:	5f                   	pop    %edi
 2be:	43                   	inc    %ebx
 2bf:	4f                   	dec    %edi
 2c0:	4c                   	dec    %esp
 2c1:	4f                   	dec    %edi
 2c2:	52                   	push   %edx
 2c3:	5f                   	pop    %edi
 2c4:	43                   	inc    %ebx
 2c5:	59                   	pop    %ecx
 2c6:	41                   	inc    %ecx
 2c7:	4e                   	dec    %esi
 2c8:	00 6c 6f 6e          	add    %ch,0x6e(%edi,%ebp,2)
 2cc:	67 20 6c 6f          	and    %ch,0x6f(%si)
 2d0:	6e                   	outsb  %ds:(%esi),(%dx)
 2d1:	67 20 69 6e          	and    %ch,0x6e(%bx,%di)
 2d5:	74 00                	je     2d7 <mb2_hdr_begin-0xffd29>
 2d7:	56                   	push   %esi
 2d8:	47                   	inc    %edi
 2d9:	41                   	inc    %ecx
 2da:	5f                   	pop    %edi
 2db:	57                   	push   %edi
 2dc:	49                   	dec    %ecx
 2dd:	44                   	inc    %esp
 2de:	54                   	push   %esp
 2df:	48                   	dec    %eax
 2e0:	00 73 68             	add    %dh,0x68(%ebx)
 2e3:	6f                   	outsl  %ds:(%esi),(%dx)
 2e4:	72 74                	jb     35a <mb2_hdr_begin-0xffca6>
 2e6:	20 69 6e             	and    %ch,0x6e(%ecx)
 2e9:	74 00                	je     2eb <mb2_hdr_begin-0xffd15>
 2eb:	75 69                	jne    356 <mb2_hdr_begin-0xffcaa>
 2ed:	6e                   	outsb  %ds:(%esi),(%dx)
 2ee:	74 31                	je     321 <mb2_hdr_begin-0xffcdf>
 2f0:	36 5f                	ss pop %edi
 2f2:	74 00                	je     2f4 <mb2_hdr_begin-0xffd0c>
 2f4:	69 6e 64 65 78 00 56 	imul   $0x56007865,0x64(%esi),%ebp
 2fb:	47                   	inc    %edi
 2fc:	41                   	inc    %ecx
 2fd:	5f                   	pop    %edi
 2fe:	43                   	inc    %ebx
 2ff:	4f                   	dec    %edi
 300:	4c                   	dec    %esp
 301:	4f                   	dec    %edi
 302:	52                   	push   %edx
 303:	5f                   	pop    %edi
 304:	4c                   	dec    %esp
 305:	49                   	dec    %ecx
 306:	47                   	inc    %edi
 307:	48                   	dec    %eax
 308:	54                   	push   %esp
 309:	5f                   	pop    %edi
 30a:	42                   	inc    %edx
 30b:	52                   	push   %edx
 30c:	4f                   	dec    %edi
 30d:	57                   	push   %edi
 30e:	4e                   	dec    %esi
 30f:	00 74 65 72          	add    %dh,0x72(%ebp,%eiz,2)
 313:	6d                   	insl   (%dx),%es:(%edi)
 314:	69 6e 61 6c 5f 73 65 	imul   $0x65735f6c,0x61(%esi),%ebp
 31b:	74 63                	je     380 <mb2_hdr_begin-0xffc80>
 31d:	6f                   	outsl  %ds:(%esi),(%dx)
 31e:	6c                   	insb   (%dx),%es:(%edi)
 31f:	6f                   	outsl  %ds:(%esi),(%dx)
 320:	72 00                	jb     322 <mb2_hdr_begin-0xffcde>
 322:	74 65                	je     389 <mb2_hdr_begin-0xffc77>
 324:	72 6d                	jb     393 <mb2_hdr_begin-0xffc6d>
 326:	69 6e 61 6c 5f 72 6f 	imul   $0x6f725f6c,0x61(%esi),%ebp
 32d:	77 00                	ja     32f <mb2_hdr_begin-0xffcd1>
 32f:	6c                   	insb   (%dx),%es:(%edi)
 330:	6f                   	outsl  %ds:(%esi),(%dx)
 331:	6e                   	outsb  %ds:(%esi),(%dx)
 332:	67 20 64 6f          	and    %ah,0x6f(%si)
 336:	75 62                	jne    39a <mb2_hdr_begin-0xffc66>
 338:	6c                   	insb   (%dx),%es:(%edi)
 339:	65 00 56 47          	add    %dl,%gs:0x47(%esi)
 33d:	41                   	inc    %ecx
 33e:	5f                   	pop    %edi
 33f:	43                   	inc    %ebx
 340:	4f                   	dec    %edi
 341:	4c                   	dec    %esp
 342:	4f                   	dec    %edi
 343:	52                   	push   %edx
 344:	5f                   	pop    %edi
 345:	47                   	inc    %edi
 346:	52                   	push   %edx
 347:	45                   	inc    %ebp
 348:	45                   	inc    %ebp
 349:	4e                   	dec    %esi
 34a:	00 74 65 72          	add    %dh,0x72(%ebp,%eiz,2)
 34e:	6d                   	insl   (%dx),%es:(%edi)
 34f:	69 6e 61 6c 5f 70 75 	imul   $0x75705f6c,0x61(%esi),%ebp
 356:	74 65                	je     3bd <mb2_hdr_begin-0xffc43>
 358:	6e                   	outsb  %ds:(%esi),(%dx)
 359:	74 72                	je     3cd <mb2_hdr_begin-0xffc33>
 35b:	79 61                	jns    3be <mb2_hdr_begin-0xffc42>
 35d:	74 00                	je     35f <mb2_hdr_begin-0xffca1>
 35f:	56                   	push   %esi
 360:	47                   	inc    %edi
 361:	41                   	inc    %ecx
 362:	5f                   	pop    %edi
 363:	43                   	inc    %ebx
 364:	4f                   	dec    %edi
 365:	4c                   	dec    %esp
 366:	4f                   	dec    %edi
 367:	52                   	push   %edx
 368:	5f                   	pop    %edi
 369:	42                   	inc    %edx
 36a:	4c                   	dec    %esp
 36b:	41                   	inc    %ecx
 36c:	43                   	inc    %ebx
 36d:	4b                   	dec    %ebx
 36e:	00 6e 75             	add    %ch,0x75(%esi)
 371:	6c                   	insb   (%dx),%es:(%edi)
 372:	6c                   	insb   (%dx),%es:(%edi)
 373:	53                   	push   %ebx
 374:	65 67 6d             	gs insl (%dx),%es:(%di)
 377:	65 6e                	outsb  %gs:(%esi),(%dx)
 379:	74 00                	je     37b <mb2_hdr_begin-0xffc85>
 37b:	47                   	inc    %edi
 37c:	44                   	inc    %esp
 37d:	54                   	push   %esp
 37e:	52                   	push   %edx
 37f:	00 67 64             	add    %ah,0x64(%edi)
 382:	74 72                	je     3f6 <mb2_hdr_begin-0xffc0a>
 384:	00 75 69             	add    %dh,0x69(%ebp)
 387:	6e                   	outsb  %ds:(%esi),(%dx)
 388:	74 70                	je     3fa <mb2_hdr_begin-0xffc06>
 38a:	74 72                	je     3fe <mb2_hdr_begin-0xffc02>
 38c:	5f                   	pop    %edi
 38d:	74 00                	je     38f <mb2_hdr_begin-0xffc71>
 38f:	47                   	inc    %edi
 390:	44                   	inc    %esp
 391:	54                   	push   %esp
 392:	5f                   	pop    %edi
 393:	65 6e                	outsb  %gs:(%esi),(%dx)
 395:	74 72                	je     409 <mb2_hdr_begin-0xffbf7>
 397:	79 00                	jns    399 <mb2_hdr_begin-0xffc67>
 399:	65 6e                	outsb  %gs:(%esi),(%dx)
 39b:	63 6f 64             	arpl   %ebp,0x64(%edi)
 39e:	65 47                	gs inc %edi
 3a0:	64 74 45             	fs je  3e8 <mb2_hdr_begin-0xffc18>
 3a3:	6e                   	outsb  %ds:(%esi),(%dx)
 3a4:	74 72                	je     418 <mb2_hdr_begin-0xffbe8>
 3a6:	79 00                	jns    3a8 <mb2_hdr_begin-0xffc58>
 3a8:	75 69                	jne    413 <mb2_hdr_begin-0xffbed>
 3aa:	6e                   	outsb  %ds:(%esi),(%dx)
 3ab:	74 36                	je     3e3 <mb2_hdr_begin-0xffc1d>
 3ad:	34 5f                	xor    $0x5f,%al
 3af:	74 00                	je     3b1 <mb2_hdr_begin-0xffc4f>
 3b1:	74 61                	je     414 <mb2_hdr_begin-0xffbec>
 3b3:	72 67                	jb     41c <mb2_hdr_begin-0xffbe4>
 3b5:	65 74 00             	gs je  3b8 <mb2_hdr_begin-0xffc48>
 3b8:	61                   	popa
 3b9:	63 63 65             	arpl   %esp,0x65(%ebx)
 3bc:	73 73                	jae    431 <mb2_hdr_begin-0xffbcf>
 3be:	5f                   	pop    %edi
 3bf:	62 79 74             	bound  %edi,0x74(%ecx)
 3c2:	65 00 72 65          	add    %dh,%gs:0x65(%edx)
 3c6:	6c                   	insb   (%dx),%es:(%edi)
 3c7:	6f                   	outsl  %ds:(%esi),(%dx)
 3c8:	61                   	popa
 3c9:	64 47                	fs inc %edi
 3cb:	64 74 00             	fs je  3ce <mb2_hdr_begin-0xffc32>
 3ce:	6c                   	insb   (%dx),%es:(%edi)
 3cf:	6f                   	outsl  %ds:(%esi),(%dx)
 3d0:	61                   	popa
 3d1:	64 5f                	fs pop %edi
 3d3:	67 64 74 00          	addr16 fs je 3d7 <mb2_hdr_begin-0xffc29>
 3d7:	62 61 73             	bound  %esp,0x73(%ecx)
 3da:	65 00 66 6c          	add    %ah,%gs:0x6c(%esi)
 3de:	61                   	popa
 3df:	67 73 00             	addr16 jae 3e2 <mb2_hdr_begin-0xffc1e>
 3e2:	6c                   	insb   (%dx),%es:(%edi)
 3e3:	69 6d 69 74 00 6b 65 	imul   $0x656b0074,0x69(%ebp),%ebp
 3ea:	72 6e                	jb     45a <mb2_hdr_begin-0xffba6>
 3ec:	65 6c                	gs insb (%dx),%es:(%edi)
 3ee:	5f                   	pop    %edi
 3ef:	64 61                	fs popa
 3f1:	74 61                	je     454 <mb2_hdr_begin-0xffbac>
 3f3:	00 73 65             	add    %dh,0x65(%ebx)
 3f6:	74 75                	je     46d <mb2_hdr_begin-0xffb93>
 3f8:	70 47                	jo     441 <mb2_hdr_begin-0xffbbf>
 3fa:	44                   	inc    %esp
 3fb:	54                   	push   %esp
 3fc:	00 70 72             	add    %dh,0x72(%eax)
 3ff:	69 6e 74 66 00 6b 65 	imul   $0x656b0066,0x74(%esi),%ebp
 406:	72 6e                	jb     476 <mb2_hdr_begin-0xffb8a>
 408:	65 6c                	gs insb (%dx),%es:(%edi)
 40a:	5f                   	pop    %edi
 40b:	63 6f 64             	arpl   %ebp,0x64(%edi)
 40e:	65 00 73 6f          	add    %dh,%gs:0x6f(%ebx)
 412:	75 72                	jne    486 <mb2_hdr_begin-0xffb7a>
 414:	63 65 00             	arpl   %esp,0x0(%ebp)
 417:	6f                   	outsl  %ds:(%esi),(%dx)
 418:	66 66 73 65          	data16 data16 jae 481 <mb2_hdr_begin-0xffb7f>
 41c:	74 5f                	je     47d <mb2_hdr_begin-0xffb83>
 41e:	31 00                	xor    %eax,(%eax)
 420:	6f                   	outsl  %ds:(%esi),(%dx)
 421:	66 66 73 65          	data16 data16 jae 48a <mb2_hdr_begin-0xffb76>
 425:	74 5f                	je     486 <mb2_hdr_begin-0xffb7a>
 427:	32 00                	xor    (%eax),%al
 429:	73 65                	jae    490 <mb2_hdr_begin-0xffb70>
 42b:	74 49                	je     476 <mb2_hdr_begin-0xffb8a>
 42d:	44                   	inc    %esp
 42e:	54                   	push   %esp
 42f:	45                   	inc    %ebp
 430:	6e                   	outsb  %ds:(%esi),(%dx)
 431:	74 72                	je     4a5 <mb2_hdr_begin-0xffb5b>
 433:	79 00                	jns    435 <mb2_hdr_begin-0xffbcb>
 435:	6c                   	insb   (%dx),%es:(%edi)
 436:	6f                   	outsl  %ds:(%esi),(%dx)
 437:	61                   	popa
 438:	64 5f                	fs pop %edi
 43a:	69 64 74 00 74 79 70 	imul   $0x65707974,0x0(%esp,%esi,2),%esp
 441:	65 
 442:	5f                   	pop    %edi
 443:	61                   	popa
 444:	74 74                	je     4ba <mb2_hdr_begin-0xffb46>
 446:	72 69                	jb     4b1 <mb2_hdr_begin-0xffb4f>
 448:	62 75 74             	bound  %esi,0x74(%ebp)
 44b:	65 73 00             	gs jae 44e <mb2_hdr_begin-0xffbb2>
 44e:	73 65                	jae    4b5 <mb2_hdr_begin-0xffb4b>
 450:	74 75                	je     4c7 <mb2_hdr_begin-0xffb39>
 452:	70 49                	jo     49d <mb2_hdr_begin-0xffb63>
 454:	44                   	inc    %esp
 455:	54                   	push   %esp
 456:	00 73 65             	add    %dh,0x65(%ebx)
 459:	6c                   	insb   (%dx),%es:(%edi)
 45a:	65 63 74 6f 72       	arpl   %esi,%gs:0x72(%edi,%ebp,2)
 45f:	00 7a 65             	add    %bh,0x65(%edx)
 462:	72 6f                	jb     4d3 <mb2_hdr_begin-0xffb2d>
 464:	00 49 44             	add    %cl,0x44(%ecx)
 467:	54                   	push   %esp
 468:	52                   	push   %edx
 469:	00 69 64             	add    %ch,0x64(%ecx)
 46c:	74 72                	je     4e0 <mb2_hdr_begin-0xffb20>
 46e:	00 64 65 66          	add    %ah,0x66(%ebp,%eiz,2)
 472:	61                   	popa
 473:	75 6c                	jne    4e1 <mb2_hdr_begin-0xffb1f>
 475:	74 49                	je     4c0 <mb2_hdr_begin-0xffb40>
 477:	6e                   	outsb  %ds:(%esi),(%dx)
 478:	74 65                	je     4df <mb2_hdr_begin-0xffb21>
 47a:	72 72                	jb     4ee <mb2_hdr_begin-0xffb12>
 47c:	75 70                	jne    4ee <mb2_hdr_begin-0xffb12>
 47e:	74 48                	je     4c8 <mb2_hdr_begin-0xffb38>
 480:	61                   	popa
 481:	6e                   	outsb  %ds:(%esi),(%dx)
 482:	64 6c                	fs insb (%dx),%es:(%edi)
 484:	65 72 00             	gs jb  487 <mb2_hdr_begin-0xffb79>
 487:	74 79                	je     502 <mb2_hdr_begin-0xffafe>
 489:	70 65                	jo     4f0 <mb2_hdr_begin-0xffb10>
 48b:	5f                   	pop    %edi
 48c:	61                   	popa
 48d:	74 74                	je     503 <mb2_hdr_begin-0xffafd>
 48f:	72 00                	jb     491 <mb2_hdr_begin-0xffb6f>
 491:	49                   	dec    %ecx
 492:	6e                   	outsb  %ds:(%esi),(%dx)
 493:	74 65                	je     4fa <mb2_hdr_begin-0xffb06>
 495:	72 72                	jb     509 <mb2_hdr_begin-0xffaf7>
 497:	75 70                	jne    509 <mb2_hdr_begin-0xffaf7>
 499:	74 44                	je     4df <mb2_hdr_begin-0xffb21>
 49b:	65 73 63             	gs jae 501 <mb2_hdr_begin-0xffaff>
 49e:	72 69                	jb     509 <mb2_hdr_begin-0xffaf7>
 4a0:	70 74                	jo     516 <mb2_hdr_begin-0xffaea>
 4a2:	6f                   	outsl  %ds:(%esi),(%dx)
 4a3:	72 00                	jb     4a5 <mb2_hdr_begin-0xffb5b>
 4a5:	76 65                	jbe    50c <mb2_hdr_begin-0xffaf4>
 4a7:	63 74 6f 72          	arpl   %esi,0x72(%edi,%ebp,2)
 4ab:	00 75 69             	add    %dh,0x69(%ebp)
 4ae:	6e                   	outsb  %ds:(%esi),(%dx)
 4af:	74 33                	je     4e4 <mb2_hdr_begin-0xffb1c>
 4b1:	32 5f 74             	xor    0x74(%edi),%bl
 4b4:	00 6b 65             	add    %ch,0x65(%ebx)
 4b7:	79 62                	jns    51b <mb2_hdr_begin-0xffae5>
 4b9:	6f                   	outsl  %ds:(%esi),(%dx)
 4ba:	61                   	popa
 4bb:	72 64                	jb     521 <mb2_hdr_begin-0xffadf>
 4bd:	49                   	dec    %ecx
 4be:	6e                   	outsb  %ds:(%esi),(%dx)
 4bf:	74 65                	je     526 <mb2_hdr_begin-0xffada>
 4c1:	72 72                	jb     535 <mb2_hdr_begin-0xffacb>
 4c3:	75 70                	jne    535 <mb2_hdr_begin-0xffacb>
 4c5:	74 48                	je     50f <mb2_hdr_begin-0xffaf1>
 4c7:	61                   	popa
 4c8:	6e                   	outsb  %ds:(%esi),(%dx)
 4c9:	64 6c                	fs insb (%dx),%es:(%edi)
 4cb:	65 72 00             	gs jb  4ce <mb2_hdr_begin-0xffb32>
 4ce:	74 69                	je     539 <mb2_hdr_begin-0xffac7>
 4d0:	6d                   	insl   (%dx),%es:(%edi)
 4d1:	65 72 48             	gs jb  51c <mb2_hdr_begin-0xffae4>
 4d4:	61                   	popa
 4d5:	6e                   	outsb  %ds:(%esi),(%dx)
 4d6:	64 6c                	fs insb (%dx),%es:(%edi)
 4d8:	65 72 00             	gs jb  4db <mb2_hdr_begin-0xffb25>
 4db:	74 69                	je     546 <mb2_hdr_begin-0xffaba>
 4dd:	6d                   	insl   (%dx),%es:(%edi)
 4de:	65 72 5f             	gs jb  540 <mb2_hdr_begin-0xffac0>
 4e1:	74 69                	je     54c <mb2_hdr_begin-0xffab4>
 4e3:	63 6b 73             	arpl   %ebp,0x73(%ebx)
 4e6:	00 63 75             	add    %ah,0x75(%ebx)
 4e9:	72 72                	jb     55d <mb2_hdr_begin-0xffaa3>
 4eb:	65 6e                	outsb  %gs:(%esi),(%dx)
 4ed:	74 4d                	je     53c <mb2_hdr_begin-0xffac4>
 4ef:	6f                   	outsl  %ds:(%esi),(%dx)
 4f0:	64 69 66 69 65 72 73 	imul   $0x737265,%fs:0x69(%esi),%esp
 4f7:	00 
 4f8:	62 75 66             	bound  %esi,0x66(%ebp)
 4fb:	66 50                	push   %ax
 4fd:	6f                   	outsl  %ds:(%esi),(%dx)
 4fe:	73 69                	jae    569 <mb2_hdr_begin-0xffa97>
 500:	74 69                	je     56b <mb2_hdr_begin-0xffa95>
 502:	6f                   	outsl  %ds:(%esi),(%dx)
 503:	6e                   	outsb  %ds:(%esi),(%dx)
 504:	00 73 63             	add    %dh,0x63(%ebx)
 507:	61                   	popa
 508:	6e                   	outsb  %ds:(%esi),(%dx)
 509:	63 6f 64             	arpl   %ebp,0x64(%edi)
 50c:	65 00 72 65          	add    %dh,%gs:0x65(%edx)
 510:	6d                   	insl   (%dx),%es:(%edi)
 511:	6f                   	outsl  %ds:(%esi),(%dx)
 512:	76 65                	jbe    579 <mb2_hdr_begin-0xffa87>
 514:	4d                   	dec    %ebp
 515:	6f                   	outsl  %ds:(%esi),(%dx)
 516:	64 69 66 69 65 72 00 	imul   $0x73007265,%fs:0x69(%esi),%esp
 51d:	73 
 51e:	63 61 6e             	arpl   %esp,0x6e(%ecx)
 521:	63 6f 64             	arpl   %ebp,0x64(%edi)
 524:	65 54                	gs push %esp
 526:	61                   	popa
 527:	62 6c 65 00          	bound  %ebp,0x0(%ebp,%eiz,2)
 52b:	6b 65 79 62          	imul   $0x62,0x79(%ebp),%esp
 52f:	6f                   	outsl  %ds:(%esi),(%dx)
 530:	61                   	popa
 531:	72 64                	jb     597 <mb2_hdr_begin-0xffa69>
 533:	42                   	inc    %edx
 534:	75 66                	jne    59c <mb2_hdr_begin-0xffa64>
 536:	66 65 72 00          	data16 gs jb 53a <mb2_hdr_begin-0xffac6>
 53a:	6b 65 79 45          	imul   $0x45,0x79(%ebp),%esp
 53e:	76 65                	jbe    5a5 <mb2_hdr_begin-0xffa5b>
 540:	6e                   	outsb  %ds:(%esi),(%dx)
 541:	74 00                	je     543 <mb2_hdr_begin-0xffabd>
 543:	6b 65 79 62          	imul   $0x62,0x79(%ebp),%esp
 547:	6f                   	outsl  %ds:(%esi),(%dx)
 548:	61                   	popa
 549:	72 64                	jb     5af <mb2_hdr_begin-0xffa51>
 54b:	44                   	inc    %esp
 54c:	72 69                	jb     5b7 <mb2_hdr_begin-0xffa49>
 54e:	76 65                	jbe    5b5 <mb2_hdr_begin-0xffa4b>
 550:	72 00                	jb     552 <mb2_hdr_begin-0xffaae>
 552:	61                   	popa
 553:	70 70                	jo     5c5 <mb2_hdr_begin-0xffa3b>
 555:	6c                   	insb   (%dx),%es:(%edi)
 556:	79 4d                	jns    5a5 <mb2_hdr_begin-0xffa5b>
 558:	6f                   	outsl  %ds:(%esi),(%dx)
 559:	64 69 66 69 65 72 00 	imul   $0x73007265,%fs:0x69(%esi),%esp
 560:	73 
 561:	74 61                	je     5c4 <mb2_hdr_begin-0xffa3c>
 563:	74 75                	je     5da <mb2_hdr_begin-0xffa26>
 565:	73 4d                	jae    5b4 <mb2_hdr_begin-0xffa4c>
 567:	61                   	popa
 568:	73 6b                	jae    5d5 <mb2_hdr_begin-0xffa2b>
 56a:	00 5f 42             	add    %bl,0x42(%edi)
 56d:	6f                   	outsl  %ds:(%esi),(%dx)
 56e:	6f                   	outsl  %ds:(%esi),(%dx)
 56f:	6c                   	insb   (%dx),%es:(%edi)
 570:	00 73 65             	add    %dh,0x65(%ebx)
 573:	63 6f 6e             	arpl   %ebp,0x6e(%edi)
 576:	64 65 43             	fs gs inc %ebx
 579:	6f                   	outsl  %ds:(%esi),(%dx)
 57a:	64 65 00 66 69       	fs add %ah,%gs:0x69(%esi)
 57f:	72 73                	jb     5f4 <mb2_hdr_begin-0xffa0c>
 581:	74 43                	je     5c6 <mb2_hdr_begin-0xffa3a>
 583:	6f                   	outsl  %ds:(%esi),(%dx)
 584:	64 65 00 6f 75       	fs add %ch,%gs:0x75(%edi)
 589:	74 62                	je     5ed <mb2_hdr_begin-0xffa13>
 58b:	00 69 6f             	add    %ch,0x6f(%ecx)
 58e:	5f                   	pop    %edi
 58f:	77 61                	ja     5f2 <mb2_hdr_begin-0xffa0e>
 591:	69 74 00 73 65 74 4b 	imul   $0x654b7465,0x73(%eax,%eax,1),%esi
 598:	65 
 599:	79 62                	jns    5fd <mb2_hdr_begin-0xffa03>
 59b:	6f                   	outsl  %ds:(%esi),(%dx)
 59c:	61                   	popa
 59d:	72 64                	jb     603 <mb2_hdr_begin-0xff9fd>
 59f:	53                   	push   %ebx
 5a0:	63 61 6e             	arpl   %esp,0x6e(%ecx)
 5a3:	63 6f 64             	arpl   %ebp,0x64(%edi)
 5a6:	65 00 70 6f          	add    %dh,%gs:0x6f(%eax)
 5aa:	72 74                	jb     620 <mb2_hdr_begin-0xff9e0>
 5ac:	00 6f 66             	add    %ch,0x66(%edi)
 5af:	66 73 65             	data16 jae 617 <mb2_hdr_begin-0xff9e9>
 5b2:	74 31                	je     5e5 <mb2_hdr_begin-0xffa1b>
 5b4:	00 6f 66             	add    %ch,0x66(%edi)
 5b7:	66 73 65             	data16 jae 61f <mb2_hdr_begin-0xff9e1>
 5ba:	74 32                	je     5ee <mb2_hdr_begin-0xffa12>
 5bc:	00 50 49             	add    %dl,0x49(%eax)
 5bf:	43                   	inc    %ebx
 5c0:	52                   	push   %edx
 5c1:	65 6d                	gs insl (%dx),%es:(%edi)
 5c3:	61                   	popa
 5c4:	70 00                	jo     5c6 <mb2_hdr_begin-0xffa3a>
 5c6:	50                   	push   %eax
 5c7:	49                   	dec    %ecx
 5c8:	43                   	inc    %ebx
 5c9:	53                   	push   %ebx
 5ca:	65 6e                	outsb  %gs:(%esi),(%dx)
 5cc:	64 45                	fs inc %ebp
 5ce:	4f                   	dec    %edi
 5cf:	49                   	dec    %ecx
 5d0:	00 6b 65             	add    %ch,0x65(%ebx)
 5d3:	72 6e                	jb     643 <mb2_hdr_begin-0xff9bd>
 5d5:	65 6c                	gs insb (%dx),%es:(%edi)
 5d7:	4d                   	dec    %ebp
 5d8:	61                   	popa
 5d9:	69 6e 00 68 65 78 50 	imul   $0x50786568,0x0(%esi),%ebp
 5e0:	6f                   	outsl  %ds:(%esi),(%dx)
 5e1:	69 6e 74 65 72 00 5f 	imul   $0x5f007265,0x74(%esi),%ebp
 5e8:	5f                   	pop    %edi
 5e9:	62 75 69             	bound  %esi,0x69(%ebp)
 5ec:	6c                   	insb   (%dx),%es:(%edi)
 5ed:	74 69                	je     658 <mb2_hdr_begin-0xff9a8>
 5ef:	6e                   	outsb  %ds:(%esi),(%dx)
 5f0:	5f                   	pop    %edi
 5f1:	76 61                	jbe    654 <mb2_hdr_begin-0xff9ac>
 5f3:	5f                   	pop    %edi
 5f4:	6c                   	insb   (%dx),%es:(%edi)
 5f5:	69 73 74 00 69 73 5f 	imul   $0x5f736900,0x74(%ebx),%esi
 5fc:	6e                   	outsb  %ds:(%esi),(%dx)
 5fd:	65 67 61             	gs addr16 popa
 600:	74 69                	je     66b <mb2_hdr_begin-0xff995>
 602:	76 65                	jbe    669 <mb2_hdr_begin-0xff997>
 604:	00 68 65             	add    %ch,0x65(%eax)
 607:	78 42                	js     64b <mb2_hdr_begin-0xff9b5>
 609:	75 66                	jne    671 <mb2_hdr_begin-0xff98f>
 60b:	66 65 72 00          	data16 gs jb 60f <mb2_hdr_begin-0xff9f1>
 60f:	62 69 6e             	bound  %ebp,0x6e(%ecx)
 612:	42                   	inc    %edx
 613:	75 66                	jne    67b <mb2_hdr_begin-0xff985>
 615:	66 65 72 00          	data16 gs jb 619 <mb2_hdr_begin-0xff9e7>
 619:	62 69 6e             	bound  %ebp,0x6e(%ecx)
 61c:	50                   	push   %eax
 61d:	6f                   	outsl  %ds:(%esi),(%dx)
 61e:	69 6e 74 65 72 00 5f 	imul   $0x5f007265,0x74(%esi),%ebp
 625:	5f                   	pop    %edi
 626:	67 6e                	outsb  %ds:(%si),(%dx)
 628:	75 63                	jne    68d <mb2_hdr_begin-0xff973>
 62a:	5f                   	pop    %edi
 62b:	76 61                	jbe    68e <mb2_hdr_begin-0xff972>
 62d:	5f                   	pop    %edi
 62e:	6c                   	insb   (%dx),%es:(%edi)
 62f:	69 73 74 00 77 72 69 	imul   $0x69727700,0x74(%ebx),%esi
 636:	74 74                	je     6ac <mb2_hdr_begin-0xff954>
 638:	65 6e                	outsb  %gs:(%esi),(%dx)
 63a:	00 47 4e             	add    %al,0x4e(%edi)
 63d:	55                   	push   %ebp
 63e:	20 43 31             	and    %al,0x31(%ebx)
 641:	31 20                	xor    %esp,(%eax)
 643:	31 35 2e 30 2e 30    	xor    %esi,0x302e302e
 649:	20 32                	and    %dh,(%edx)
 64b:	30 32                	xor    %dh,(%edx)
 64d:	34 30                	xor    $0x30,%al
 64f:	35 31 36 20 28       	xor    $0x28203631,%eax
 654:	65 78 70             	gs js  6c7 <mb2_hdr_begin-0xff939>
 657:	65 72 69             	gs jb  6c3 <mb2_hdr_begin-0xff93d>
 65a:	6d                   	insl   (%dx),%es:(%edi)
 65b:	65 6e                	outsb  %gs:(%esi),(%dx)
 65d:	74 61                	je     6c0 <mb2_hdr_begin-0xff940>
 65f:	6c                   	insb   (%dx),%es:(%edi)
 660:	29 20                	sub    %esp,(%eax)
 662:	2d 6d 74 75 6e       	sub    $0x6e75746d,%eax
 667:	65 3d 67 65 6e 65    	gs cmp $0x656e6567,%eax
 66d:	72 69                	jb     6d8 <mb2_hdr_begin-0xff928>
 66f:	63 20                	arpl   %esp,(%eax)
 671:	2d 6d 61 72 63       	sub    $0x6372616d,%eax
 676:	68 3d 70 65 6e       	push   $0x6e65703d
 67b:	74 69                	je     6e6 <mb2_hdr_begin-0xff91a>
 67d:	75 6d                	jne    6ec <mb2_hdr_begin-0xff914>
 67f:	70 72                	jo     6f3 <mb2_hdr_begin-0xff90d>
 681:	6f                   	outsl  %ds:(%esi),(%dx)
 682:	20 2d 67 20 2d 4f    	and    %ch,0x4f2d2067
 688:	32 20                	xor    (%eax),%ah
 68a:	2d 73 74 64 3d       	sub    $0x3d647473,%eax
 68f:	67 6e                	outsb  %ds:(%si),(%dx)
 691:	75 31                	jne    6c4 <mb2_hdr_begin-0xff93c>
 693:	31 20                	xor    %esp,(%eax)
 695:	2d 66 66 72 65       	sub    $0x65726666,%eax
 69a:	65 73 74             	gs jae 711 <mb2_hdr_begin-0xff8ef>
 69d:	61                   	popa
 69e:	6e                   	outsb  %ds:(%esi),(%dx)
 69f:	64 69 6e 67 00 70 61 	imul   $0x72617000,%fs:0x67(%esi),%ebp
 6a6:	72 
 6a7:	61                   	popa
 6a8:	6d                   	insl   (%dx),%es:(%edi)
 6a9:	65 74 65             	gs je  711 <mb2_hdr_begin-0xff8ef>
 6ac:	72 73                	jb     721 <mb2_hdr_begin-0xff8df>
 6ae:	00 70 72             	add    %dh,0x72(%eax)
 6b1:	69 6e 74 00 6d 61 78 	imul   $0x78616d00,0x74(%esi),%ebp
 6b8:	72 65                	jb     71f <mb2_hdr_begin-0xff8e1>
 6ba:	6d                   	insl   (%dx),%es:(%edi)
 6bb:	00 69 6e             	add    %ch,0x6e(%ecx)
 6be:	74 42                	je     702 <mb2_hdr_begin-0xff8fe>
 6c0:	75 66                	jne    728 <mb2_hdr_begin-0xff8d8>
 6c2:	66 65 72 00          	data16 gs jb 6c6 <mb2_hdr_begin-0xff93a>
 6c6:	73 74                	jae    73c <mb2_hdr_begin-0xff8c4>
 6c8:	72 4c                	jb     716 <mb2_hdr_begin-0xff8ea>
 6ca:	65 6e                	outsb  %gs:(%esi),(%dx)
 6cc:	00 66 6f             	add    %ah,0x6f(%esi)
 6cf:	72 6d                	jb     73e <mb2_hdr_begin-0xff8c2>
 6d1:	61                   	popa
 6d2:	74 00                	je     6d4 <mb2_hdr_begin-0xff92c>
 6d4:	62 69 6e             	bound  %ebp,0x6e(%ecx)
 6d7:	4c                   	dec    %esp
 6d8:	65 6e                	outsb  %gs:(%esi),(%dx)
 6da:	00 68 65             	add    %ch,0x65(%eax)
 6dd:	78 4c                	js     72b <mb2_hdr_begin-0xff8d5>
 6df:	65 6e                	outsb  %gs:(%esi),(%dx)
 6e1:	00 61 62             	add    %ah,0x62(%ecx)
 6e4:	73 5f                	jae    745 <mb2_hdr_begin-0xff8bb>
 6e6:	76 61                	jbe    749 <mb2_hdr_begin-0xff8b7>
 6e8:	6c                   	insb   (%dx),%es:(%edi)
 6e9:	75 65                	jne    750 <mb2_hdr_begin-0xff8b0>
 6eb:	00 66 6f             	add    %ah,0x6f(%esi)
 6ee:	72 6d                	jb     75d <mb2_hdr_begin-0xff8a3>
 6f0:	61                   	popa
 6f1:	74 5f                	je     752 <mb2_hdr_begin-0xff8ae>
 6f3:	62 65 67             	bound  %esp,0x67(%ebp)
 6f6:	75 6e                	jne    766 <mb2_hdr_begin-0xff89a>
 6f8:	5f                   	pop    %edi
 6f9:	61                   	popa
 6fa:	74 00                	je     6fc <mb2_hdr_begin-0xff904>
 6fc:	62 69 6e             	bound  %ebp,0x6e(%ecx)
 6ff:	56                   	push   %esi
 700:	61                   	popa
 701:	6c                   	insb   (%dx),%es:(%edi)
 702:	75 65                	jne    769 <mb2_hdr_begin-0xff897>
 704:	00 62 69             	add    %ah,0x69(%edx)
 707:	6e                   	outsb  %ds:(%esi),(%dx)
 708:	50                   	push   %eax
 709:	74 72                	je     77d <mb2_hdr_begin-0xff883>
 70b:	00 6c 65 6e          	add    %ch,0x6e(%ebp,%eiz,2)
 70f:	67 74 68             	addr16 je 77a <mb2_hdr_begin-0xff886>
 712:	00 61 72             	add    %ah,0x72(%ecx)
 715:	63 68 2f             	arpl   %ebp,0x2f(%eax)
 718:	69 33 38 36 2f 63    	imul   $0x632f3638,(%ebx),%esi
 71e:	72 74                	jb     794 <mb2_hdr_begin-0xff86c>
 720:	6e                   	outsb  %ds:(%esi),(%dx)
 721:	2e 53                	cs push %ebx
	...

Disassembly of section .debug_rnglists:

00000000 <.debug_rnglists>:
   0:	15 00 00 00 05       	adc    $0x5000000,%eax
   5:	00 04 00             	add    %al,(%eax,%eax,1)
   8:	00 00                	add    %al,(%eax)
   a:	00 00                	add    %al,(%eax)
   c:	07                   	pop    %es
   d:	89 0f                	mov    %ecx,(%edi)
   f:	10 00                	adc    %al,(%eax)
  11:	03 07                	add    (%edi),%eax
  13:	98                   	cwtl
  14:	0f 10 00             	movups (%eax),%xmm0
  17:	03 00                	add    (%eax),%eax
  19:	58                   	pop    %eax
  1a:	00 00                	add    %al,(%eax)
  1c:	00 05 00 04 00 00    	add    %al,0x400
  22:	00 00                	add    %al,(%eax)
  24:	00 04 40             	add    %al,(%eax,%eax,2)
  27:	45                   	inc    %ebp
  28:	04 48                	add    $0x48,%al
  2a:	4c                   	dec    %esp
  2b:	04 4c                	add    $0x4c,%al
  2d:	55                   	push   %ebp
  2e:	00 04 83             	add    %al,(%ebx,%eax,4)
  31:	01 8b 01 04 8e 01    	add    %ecx,0x18e0401(%ebx)
  37:	93                   	xchg   %eax,%ebx
  38:	01 04 96             	add    %eax,(%esi,%edx,4)
  3b:	01 9c 01 04 a2 01 a6 	add    %ebx,-0x59fe5dfc(%ecx,%eax,1)
  42:	01 00                	add    %eax,(%eax)
  44:	04 cd                	add    $0xcd,%al
  46:	01 e8                	add    %ebp,%eax
  48:	01 04 e8             	add    %eax,(%eax,%ebp,8)
  4b:	01 f0                	add    %esi,%eax
  4d:	01 00                	add    %eax,(%eax)
  4f:	04 de                	add    $0xde,%al
  51:	01 e8                	add    %ebp,%eax
  53:	01 04 e8             	add    %eax,(%eax,%ebp,8)
  56:	01 f0                	add    %esi,%eax
  58:	01 00                	add    %eax,(%eax)
  5a:	04 f6                	add    $0xf6,%al
  5c:	02 80 03 04 83 03    	add    0x3830403(%eax),%al
  62:	87 03                	xchg   %eax,(%ebx)
  64:	04 87                	add    $0x87,%al
  66:	03 8b 03 00 04 b3    	add    -0x4cfbfffd(%ebx),%ecx
  6c:	03 b3 03 04 b8 03    	add    0x3b80403(%ebx),%esi
  72:	de 03                	fiadds (%ebx)
  74:	00 10                	add    %dl,(%eax)
  76:	00 00                	add    %al,(%eax)
  78:	00 05 00 04 00 00    	add    %al,0x400
  7e:	00 00                	add    %al,(%eax)
  80:	00 04 40             	add    %al,(%eax,%eax,2)
  83:	40                   	inc    %eax
  84:	04 5d                	add    $0x5d,%al
  86:	99                   	cltd
  87:	01 00                	add    %eax,(%eax)
  89:	38 00                	cmp    %al,(%eax)
  8b:	00 00                	add    %al,(%eax)
  8d:	05 00 04 00 00       	add    $0x400,%eax
  92:	00 00                	add    %al,(%eax)
  94:	00 04 b0             	add    %al,(%eax,%esi,4)
  97:	01 b0 01 04 b1 01    	add    %esi,0x1b10401(%eax)
  9d:	b3 01                	mov    $0x1,%bl
  9f:	04 bd                	add    $0xbd,%al
  a1:	01 c7                	add    %eax,%edi
  a3:	01 04 d0             	add    %eax,(%eax,%edx,8)
  a6:	01 f7                	add    %esi,%edi
  a8:	02 04 a0             	add    (%eax,%eiz,4),%al
  ab:	03 e9                	add    %ecx,%ebp
  ad:	03 00                	add    (%eax),%eax
  af:	04 c2                	add    $0xc2,%al
  b1:	01 c7                	add    %eax,%edi
  b3:	01 04 f5 01 9f 02 00 	add    %eax,0x29f01(,%esi,8)
  ba:	04 b8                	add    $0xb8,%al
  bc:	02 e9                	add    %cl,%ch
  be:	02 04 a9             	add    (%ecx,%ebp,4),%al
  c1:	03 df                	add    %edi,%ebx
  c3:	03 00                	add    (%eax),%eax
  c5:	2e 00 00             	add    %al,%cs:(%eax)
  c8:	00 05 00 04 00 00    	add    %al,0x400
  ce:	00 00                	add    %al,(%eax)
  d0:	00 04 13             	add    %al,(%ebx,%edx,1)
  d3:	15 04 37 5c 00       	adc    $0x5c3704,%eax
  d8:	04 78                	add    $0x78,%al
  da:	7a 04                	jp     e0 <mb2_hdr_begin-0xfff20>
  dc:	97                   	xchg   %eax,%edi
  dd:	01 bc 01 00 04 df 01 	add    %edi,0x1df0400(%ecx,%eax,1)
  e4:	94                   	xchg   %eax,%esp
  e5:	02 04 80             	add    (%eax,%eax,4),%al
  e8:	03 99 03 00 04 df    	add    -0x20fbfffd(%ecx),%ebx
  ee:	01 e6                	add    %esp,%esi
  f0:	01 04 80             	add    %eax,(%eax,%eax,4)
  f3:	03 99 03 00 82 00    	add    0x820003(%ecx),%ebx
  f9:	00 00                	add    %al,(%eax)
  fb:	05 00 04 00 00       	add    $0x400,%eax
 100:	00 00                	add    %al,(%eax)
 102:	00 04 24             	add    %al,(%esp)
 105:	b7 01                	mov    $0x1,%bh
 107:	04 c2                	add    $0xc2,%al
 109:	01 c0                	add    %eax,%eax
 10b:	03 04 d0             	add    (%eax,%edx,8),%eax
 10e:	03 80 06 04 83 06    	add    0x6830406(%eax),%eax
 114:	86 06                	xchg   %al,(%esi)
 116:	04 89                	add    $0x89,%al
 118:	06                   	push   %es
 119:	89 08                	mov    %ecx,(%eax)
 11b:	00 04 24             	add    %al,(%esp)
 11e:	30 04 68             	xor    %al,(%eax,%ebp,2)
 121:	b0 01                	mov    $0x1,%al
 123:	04 c2                	add    $0xc2,%al
 125:	01 c0                	add    %eax,%eax
 127:	03 04 d0             	add    (%eax,%edx,8),%eax
 12a:	03 98 05 04 90 06    	add    0x6900405(%eax),%ebx
 130:	a0 06 04 b7 06       	mov    0x6b70406,%al
 135:	89 08                	mov    %ecx,(%eax)
 137:	00 04 7b             	add    %al,(%ebx,%edi,2)
 13a:	b0 01                	mov    $0x1,%al
 13c:	04 c7                	add    $0xc7,%al
 13e:	06                   	push   %es
 13f:	c9                   	leave
 140:	06                   	push   %es
 141:	00 04 eb             	add    %al,(%ebx,%ebp,8)
 144:	02 a4 03 04 90 06 95 	add    -0x6af96ffc(%ebx,%eax,1),%ah
 14b:	06                   	push   %es
 14c:	00 04 e6             	add    %al,(%esi,%eiz,8)
 14f:	03 fe                	add    %esi,%edi
 151:	03 04 85 04 85 04 00 	add    0x48504(,%eax,4),%eax
 158:	04 dc                	add    $0xdc,%al
 15a:	04 98                	add    $0x98,%al
 15c:	05 04 b7 06 bc       	add    $0xbc06b704,%eax
 161:	06                   	push   %es
 162:	00 04 b0             	add    %al,(%eax,%esi,4)
 165:	01 b7 01 04 98 05    	add    %esi,0x5980401(%edi)
 16b:	80 06 04             	addb   $0x4,(%esi)
 16e:	83 06 86             	addl   $0xffffff86,(%esi)
 171:	06                   	push   %es
 172:	04 89                	add    $0x89,%al
 174:	06                   	push   %es
 175:	90                   	nop
 176:	06                   	push   %es
 177:	04 a0                	add    $0xa0,%al
 179:	06                   	push   %es
 17a:	b7 06                	mov    $0x6,%bh
 17c:	00 15 00 00 00 05    	add    %dl,0x5000000
 182:	00 04 00             	add    %al,(%eax,%eax,1)
 185:	00 00                	add    %al,(%eax)
 187:	00 00                	add    %al,(%eax)
 189:	07                   	pop    %es
 18a:	96                   	xchg   %eax,%esi
 18b:	0f 10 00             	movups (%eax),%xmm0
 18e:	02 07                	add    (%edi),%al
 190:	a0 0f 10 00 02       	mov    0x200100f,%al
	...

Disassembly of section .comment:

00000000 <.comment>:
   0:	47                   	inc    %edi
   1:	43                   	inc    %ebx
   2:	43                   	inc    %ebx
   3:	3a 20                	cmp    (%eax),%ah
   5:	28 47 4e             	sub    %al,0x4e(%edi)
   8:	55                   	push   %ebp
   9:	29 20                	sub    %esp,(%eax)
   b:	31 35 2e 30 2e 30    	xor    %esi,0x302e302e
  11:	20 32                	and    %dh,(%edx)
  13:	30 32                	xor    %dh,(%edx)
  15:	34 30                	xor    $0x30,%al
  17:	35 31 36 20 28       	xor    $0x28203631,%eax
  1c:	65 78 70             	gs js  8f <mb2_hdr_begin-0xfff71>
  1f:	65 72 69             	gs jb  8b <mb2_hdr_begin-0xfff75>
  22:	6d                   	insl   (%dx),%es:(%edi)
  23:	65 6e                	outsb  %gs:(%esi),(%dx)
  25:	74 61                	je     88 <mb2_hdr_begin-0xfff78>
  27:	6c                   	insb   (%dx),%es:(%edi)
  28:	29 00                	sub    %eax,(%eax)

Disassembly of section .debug_loclists:

00000000 <.debug_loclists>:
   0:	53                   	push   %ebx
   1:	01 00                	add    %eax,(%eax)
   3:	00 05 00 04 00 00    	add    %al,0x400
   9:	00 00                	add    %al,(%eax)
   b:	00 00                	add    %al,(%eax)
   d:	00 04 81             	add    %al,(%ecx,%eax,4)
  10:	04 ad                	add    $0xad,%al
  12:	04 02                	add    $0x2,%al
  14:	91                   	xchg   %eax,%ecx
  15:	00 00                	add    %al,(%eax)
  17:	00 00                	add    %al,(%eax)
  19:	04 81                	add    $0x81,%al
  1b:	04 8b                	add    $0x8b,%al
  1d:	04 01                	add    $0x1,%al
  1f:	50                   	push   %eax
  20:	00 03                	add    %al,(%ebx)
  22:	00 00                	add    %al,(%eax)
  24:	00 00                	add    %al,(%eax)
  26:	01 04 81             	add    %eax,(%ecx,%eax,4)
  29:	04 8b                	add    $0x8b,%al
  2b:	04 02                	add    $0x2,%al
  2d:	30 9f 04 8b 04 99    	xor    %bl,-0x66fb74fc(%edi)
  33:	04 07                	add    $0x7,%al
  35:	73 00                	jae    37 <mb2_hdr_begin-0xfffc9>
  37:	91                   	xchg   %eax,%ecx
  38:	00 06                	add    %al,(%esi)
  3a:	1c 9f                	sbb    $0x9f,%al
  3c:	04 99                	add    $0x99,%al
  3e:	04 9f                	add    $0x9f,%al
  40:	04 08                	add    $0x8,%al
  42:	91                   	xchg   %eax,%ecx
  43:	00 06                	add    %al,(%esi)
  45:	20 73 00             	and    %dh,0x0(%ebx)
  48:	22 9f 00 01 00 04    	and    0x4000100(%edi),%bl
  4e:	e8 01 ca 02 01       	call   102ca54 <currentModifiers+0xf28fb6>
  53:	51                   	push   %ecx
  54:	00 02                	add    %al,(%edx)
  56:	00 04 e8             	add    %al,(%eax,%ebp,8)
  59:	01 f0                	add    %esi,%eax
  5b:	01 01                	add    %eax,(%ecx)
  5d:	51                   	push   %ecx
  5e:	00 02                	add    %al,(%edx)
  60:	00 04 e8             	add    %al,(%eax,%ebp,8)
  63:	01 f0                	add    %esi,%eax
  65:	01 05 03 24 30 10    	add    %eax,0x10302403
  6b:	00 00                	add    %al,(%eax)
  6d:	02 00                	add    (%eax),%al
  6f:	04 e8                	add    $0xe8,%al
  71:	01 f0                	add    %esi,%eax
  73:	01 05 03 28 30 10    	add    %eax,0x10302803
  79:	00 00                	add    %al,(%eax)
  7b:	02 00                	add    (%eax),%al
  7d:	04 e8                	add    $0xe8,%al
  7f:	01 f0                	add    %esi,%eax
  81:	01 05 03 2c 30 10    	add    %eax,0x10302c03
  87:	00 00                	add    %al,(%eax)
  89:	04 00                	add    $0x0,%al
  8b:	04 e8                	add    $0xe8,%al
  8d:	01 f0                	add    %esi,%eax
  8f:	01 11                	add    %edx,(%ecx)
  91:	03 2c 30             	add    (%eax,%esi,1),%ebp
  94:	10 00                	adc    %al,(%eax)
  96:	06                   	push   %es
  97:	08 50 1e             	or     %dl,0x1e(%eax)
  9a:	03 28                	add    (%eax),%ebp
  9c:	30 10                	xor    %dl,(%eax)
  9e:	00 06                	add    %al,(%esi)
  a0:	22 9f 00 05 07 04    	and    0x4070500(%edi),%bl
  a6:	e8 01 e8 01 01       	call   101e8ac <currentModifiers+0xf1ae0e>
  ab:	51                   	push   %ecx
  ac:	00 05 07 04 e8 01    	add    %al,0x1e80407
  b2:	e8 01 05 03 24       	call   240305b8 <currentModifiers+0x23f2cb1a>
  b7:	30 10                	xor    %dl,(%eax)
  b9:	00 00                	add    %al,(%eax)
  bb:	02 04 04             	add    (%esp,%eax,1),%al
  be:	c3                   	ret
  bf:	02 c3                	add    %bl,%al
  c1:	02 02                	add    (%edx),%al
  c3:	30 9f 00 02 00 04    	xor    %bl,0x4000200(%edi)
  c9:	ea 02 ea 02 02 30 9f 	ljmp   $0x9f30,$0x202ea02
  d0:	00 00                	add    %al,(%eax)
  d2:	00 04 ea             	add    %al,(%edx,%ebp,8)
  d5:	02 f6                	add    %dh,%dh
  d7:	02 02                	add    (%edx),%al
  d9:	30 9f 00 02 00 04    	xor    %bl,0x4000200(%edi)
  df:	2a 2a                	sub    (%edx),%ch
  e1:	02 30                	add    (%eax),%dh
  e3:	9f                   	lahf
  e4:	00 00                	add    %al,(%eax)
  e6:	00 04 2a             	add    %al,(%edx,%ebp,1)
  e9:	36 02 30             	add    %ss:(%eax),%dh
  ec:	9f                   	lahf
  ed:	00 00                	add    %al,(%eax)
  ef:	00 04 8e             	add    %al,(%esi,%ecx,4)
  f2:	01 a8 01 0b 91 0c    	add    %ebp,0xc910b01(%eax)
  f8:	06                   	push   %es
  f9:	08 50 1e             	or     %dl,0x1e(%eax)
  fc:	91                   	xchg   %eax,%ecx
  fd:	08 06                	or     %al,(%esi)
  ff:	22 9f 00 01 03 04    	and    0x4030100(%edi),%bl
 105:	8e 01                	mov    (%ecx),%es
 107:	8e 01                	mov    (%ecx),%es
 109:	02 91 00 00 01 03    	add    0x3010000(%ecx),%dl
 10f:	04 8e                	add    $0x8e,%al
 111:	01 8e 01 02 91 04    	add    %ecx,0x4910201(%esi)
 117:	00 00                	add    %al,(%eax)
 119:	00 00                	add    %al,(%eax)
 11b:	00 04 b0             	add    %al,(%eax,%esi,4)
 11e:	03 e4                	add    %esp,%esp
 120:	03 02                	add    (%edx),%eax
 122:	91                   	xchg   %eax,%ecx
 123:	04 04                	add    $0x4,%al
 125:	e4 03                	in     $0x3,%al
 127:	e5 03                	in     $0x3,%eax
 129:	02 74 08 00          	add    0x0(%eax,%ecx,1),%dh
 12d:	02 00                	add    (%eax),%al
 12f:	00 00                	add    %al,(%eax)
 131:	00 01                	add    %al,(%ecx)
 133:	04 b3                	add    $0xb3,%al
 135:	03 c1                	add    %ecx,%eax
 137:	03 02                	add    (%edx),%eax
 139:	30 9f 04 c1 03 d1    	xor    %bl,-0x2efc3efc(%edi)
 13f:	03 07                	add    (%edi),%eax
 141:	73 00                	jae    143 <mb2_hdr_begin-0xffebd>
 143:	91                   	xchg   %eax,%ecx
 144:	00 06                	add    %al,(%esi)
 146:	1c 9f                	sbb    $0x9f,%al
 148:	04 d1                	add    $0xd1,%al
 14a:	03 d7                	add    %edi,%edx
 14c:	03 08                	add    (%eax),%ecx
 14e:	91                   	xchg   %eax,%ecx
 14f:	00 06                	add    %al,(%esi)
 151:	20 73 00             	and    %dh,0x0(%ebx)
 154:	22 9f 00 8a 00 00    	and    0x8a00(%edi),%bl
 15a:	00 05 00 04 00 00    	add    %al,0x400
 160:	00 00                	add    %al,(%eax)
 162:	00 02                	add    %al,(%edx)
 164:	00 04 40             	add    %al,(%eax,%eax,2)
 167:	d1 01                	roll   $1,(%ecx)
 169:	11 09                	adc    %ecx,(%ecx)
 16b:	ff 9f 93 02 30 9f    	lcall  *-0x60cffd6d(%edi)
 171:	93                   	xchg   %eax,%ebx
 172:	02 30                	add    (%eax),%dh
 174:	9f                   	lahf
 175:	93                   	xchg   %eax,%ebx
 176:	02 30                	add    (%eax),%dh
 178:	9f                   	lahf
 179:	93                   	xchg   %eax,%ebx
 17a:	02 00                	add    (%eax),%al
 17c:	10 00                	adc    %al,(%eax)
 17e:	04 40                	add    $0x40,%al
 180:	d1 01                	roll   $1,(%ecx)
 182:	13 09                	adc    (%ecx),%ecx
 184:	ff 9f 93 02 30 9f    	lcall  *-0x60cffd6d(%edi)
 18a:	93                   	xchg   %eax,%ebx
 18b:	02 08                	add    (%eax),%cl
 18d:	9a 9f 93 02 08 cf 9f 	lcall  $0x9fcf,$0x802939f
 194:	93                   	xchg   %eax,%ebx
 195:	02 00                	add    (%eax),%al
 197:	12 00                	adc    (%eax),%al
 199:	04 40                	add    $0x40,%al
 19b:	d1 01                	roll   $1,(%ecx)
 19d:	13 09                	adc    (%ecx),%ecx
 19f:	ff 9f 93 02 30 9f    	lcall  *-0x60cffd6d(%edi)
 1a5:	93                   	xchg   %eax,%ebx
 1a6:	02 08                	add    (%eax),%cl
 1a8:	92                   	xchg   %eax,%edx
 1a9:	9f                   	lahf
 1aa:	93                   	xchg   %eax,%ebx
 1ab:	02 08                	add    (%eax),%cl
 1ad:	cf                   	iret
 1ae:	9f                   	lahf
 1af:	93                   	xchg   %eax,%ebx
 1b0:	02 00                	add    (%eax),%al
 1b2:	03 0e                	add    (%esi),%ecx
 1b4:	04 40                	add    $0x40,%al
 1b6:	40                   	inc    %eax
 1b7:	06                   	push   %es
 1b8:	03 30                	add    (%eax),%esi
 1ba:	30 10                	xor    %dl,(%eax)
 1bc:	00 9f 00 03 0e 0e    	add    %bl,0xe0e0300(%edi)
 1c2:	00 04 40             	add    %al,(%eax,%eax,2)
 1c5:	40                   	inc    %eax
 1c6:	11 09                	adc    %ecx,(%ecx)
 1c8:	ff 9f 93 02 30 9f    	lcall  *-0x60cffd6d(%edi)
 1ce:	93                   	xchg   %eax,%ebx
 1cf:	02 30                	add    (%eax),%dh
 1d1:	9f                   	lahf
 1d2:	93                   	xchg   %eax,%ebx
 1d3:	02 30                	add    (%eax),%dh
 1d5:	9f                   	lahf
 1d6:	93                   	xchg   %eax,%ebx
 1d7:	02 04 40             	add    (%eax,%eax,2),%al
 1da:	d1 01                	roll   $1,(%ecx)
 1dc:	07                   	pop    %es
 1dd:	09 ff                	or     %edi,%edi
 1df:	9f                   	lahf
 1e0:	93                   	xchg   %eax,%ebx
 1e1:	02 93 06 00 03 01    	add    0x1030006(%ebx),%dl
 1e7:	00 00                	add    %al,(%eax)
 1e9:	05 00 04 00 00       	add    $0x400,%eax
 1ee:	00 00                	add    %al,(%eax)
 1f0:	00 03                	add    %al,(%ebx)
 1f2:	00 00                	add    %al,(%eax)
 1f4:	00 03                	add    %al,(%ebx)
 1f6:	05 02 00 00 00       	add    $0x2,%eax
 1fb:	00 00                	add    %al,(%eax)
 1fd:	03 00                	add    (%eax),%eax
 1ff:	04 b0                	add    $0xb0,%al
 201:	01 ca                	add    %ecx,%edx
 203:	01 02                	add    %eax,(%edx)
 205:	30 9f 04 ca 01 db    	xor    %bl,-0x24fe35fc(%edi)
 20b:	01 01                	add    %eax,(%ecx)
 20d:	50                   	push   %eax
 20e:	04 f5                	add    $0xf5,%al
 210:	01 f5                	add    %esi,%ebp
 212:	01 03                	add    %eax,(%ebx)
 214:	08 21                	or     %ah,(%ecx)
 216:	9f                   	lahf
 217:	04 b0                	add    $0xb0,%al
 219:	02 b8 02 03 08 22    	add    0x22080302(%eax),%bh
 21f:	9f                   	lahf
 220:	04 ec                	add    $0xec,%al
 222:	02 86 03 01 50 04    	add    0x4500103(%esi),%al
 228:	9c                   	pushf
 229:	03 bf 03 01 50 04    	add    0x4500103(%edi),%edi
 22f:	df 03                	filds  (%ebx)
 231:	e9 03 02 32 9f       	jmp    9f320439 <currentModifiers+0x9f21c99b>
 236:	00 06                	add    %al,(%esi)
 238:	00 04 f5 01 9f 02 03 	add    %al,0x3029f01(,%esi,8)
 23f:	08 21                	or     %ah,(%ecx)
 241:	9f                   	lahf
 242:	00 06                	add    %al,(%esi)
 244:	00 04 f5 01 9f 02 02 	add    %al,0x2029f01(,%esi,8)
 24b:	38 9f 00 06 00 04    	cmp    %bl,0x4000600(%edi)
 251:	f5                   	cmc
 252:	01 9f 02 03 09 8e    	add    %ebx,-0x71f6fcfe(%edi)
 258:	9f                   	lahf
 259:	00 01                	add    %al,(%ecx)
 25b:	00 04 d9             	add    %al,(%ecx,%ebx,8)
 25e:	01 f5                	add    %esi,%ebp
 260:	01 03                	add    %eax,(%ebx)
 262:	08 20                	or     %ah,(%eax)
 264:	9f                   	lahf
 265:	00 01                	add    %al,(%ecx)
 267:	00 04 d9             	add    %al,(%ecx,%ebx,8)
 26a:	01 f5                	add    %esi,%ebp
 26c:	01 02                	add    %eax,(%edx)
 26e:	38 9f 00 01 00 04    	cmp    %bl,0x4000100(%edi)
 274:	d9 01                	flds   (%ecx)
 276:	f5                   	cmc
 277:	01 03                	add    %eax,(%ebx)
 279:	09 8e 9f 00 01 00    	or     %ecx,0x1009f(%esi)
 27f:	04 a9                	add    $0xa9,%al
 281:	03 bf 03 01 50 00    	add    0x500103(%edi),%edi
 287:	01 00                	add    %eax,(%eax)
 289:	04 a9                	add    $0xa9,%al
 28b:	03 df                	add    %edi,%ebx
 28d:	03 02                	add    (%edx),%eax
 28f:	38 9f 00 01 00 04    	cmp    %bl,0x4000100(%edi)
 295:	a9 03 df 03 03       	test   $0x303df03,%eax
 29a:	09 8e 9f 00 00 00    	or     %ecx,0x9f(%esi)
 2a0:	00 00                	add    %al,(%eax)
 2a2:	00 00                	add    %al,(%eax)
 2a4:	04 00                	add    $0x0,%al
 2a6:	52                   	push   %edx
 2a7:	02 91 04 04 52 53    	add    0x53520404(%ecx),%dl
 2ad:	02 74 08 04          	add    0x4(%eax,%ecx,1),%dh
 2b1:	53                   	push   %ebx
 2b2:	91                   	xchg   %eax,%ecx
 2b3:	01 02                	add    %eax,(%edx)
 2b5:	91                   	xchg   %eax,%ecx
 2b6:	04 00                	add    $0x0,%al
 2b8:	00 00                	add    %al,(%eax)
 2ba:	00 00                	add    %al,(%eax)
 2bc:	00 00                	add    %al,(%eax)
 2be:	04 00                	add    $0x0,%al
 2c0:	52                   	push   %edx
 2c1:	02 91 08 04 52 53    	add    0x53520408(%ecx),%dl
 2c7:	02 74 0c 04          	add    0x4(%esp,%ecx,1),%dh
 2cb:	53                   	push   %ebx
 2cc:	91                   	xchg   %eax,%ecx
 2cd:	01 02                	add    %eax,(%edx)
 2cf:	91                   	xchg   %eax,%ecx
 2d0:	08 00                	or     %al,(%eax)
 2d2:	00 00                	add    %al,(%eax)
 2d4:	00 00                	add    %al,(%eax)
 2d6:	00 00                	add    %al,(%eax)
 2d8:	04 00                	add    $0x0,%al
 2da:	52                   	push   %edx
 2db:	02 91 0c 04 52 53    	add    0x5352040c(%ecx),%dl
 2e1:	02 74 10 04          	add    0x4(%eax,%edx,1),%dh
 2e5:	53                   	push   %ebx
 2e6:	91                   	xchg   %eax,%ecx
 2e7:	01 02                	add    %eax,(%edx)
 2e9:	91                   	xchg   %eax,%ecx
 2ea:	0c 00                	or     $0x0,%al
 2ec:	cb                   	lret
 2ed:	00 00                	add    %al,(%eax)
 2ef:	00 05 00 04 00 00    	add    %al,0x400
	...
 301:	00 00                	add    %al,(%eax)
 303:	00 04 d7             	add    %al,(%edi,%edx,8)
 306:	01 e1                	add    %esp,%ecx
 308:	02 01                	add    (%ecx),%al
 30a:	53                   	push   %ebx
 30b:	04 e1                	add    $0xe1,%al
 30d:	02 e2                	add    %dl,%ah
 30f:	02 01                	add    (%ecx),%al
 311:	56                   	push   %esi
 312:	04 e4                	add    $0xe4,%al
 314:	02 f8                	add    %al,%bh
 316:	02 01                	add    (%ecx),%al
 318:	53                   	push   %ebx
 319:	04 f8                	add    $0xf8,%al
 31b:	02 f9                	add    %cl,%bh
 31d:	02 01                	add    (%ecx),%al
 31f:	56                   	push   %esi
 320:	04 fb                	add    $0xfb,%al
 322:	02 9d 03 01 53 04    	add    0x4530103(%ebp),%bl
 328:	9d                   	popf
 329:	03 9e 03 01 56 00    	add    0x560103(%esi),%ebx
 32f:	01 01                	add    %eax,(%ecx)
 331:	00 01                	add    %al,(%ecx)
 333:	04 df                	add    $0xdf,%al
 335:	01 8a 02 01 53 04    	add    %ecx,0x4530102(%edx)
 33b:	fb                   	sti
 33c:	02 96 03 01 53 00    	add    0x530103(%esi),%dl
 342:	01 01                	add    %eax,(%ecx)
 344:	04 fb                	add    $0xfb,%al
 346:	02 96 03 02 4d 9f    	add    -0x60b2fdfd(%esi),%dl
 34c:	00 02                	add    %al,(%edx)
 34e:	01 04 40             	add    %eax,(%eax,%eax,2)
 351:	54                   	push   %esp
 352:	02 4d 9f             	add    -0x61(%ebp),%cl
	...
 365:	00 04 60             	add    %al,(%eax,%eiz,2)
 368:	69 02 91 00 04 69    	imul   $0x69040091,(%edx),%eax
 36e:	73 04                	jae    374 <mb2_hdr_begin-0xffc8c>
 370:	70 80                	jo     2f2 <mb2_hdr_begin-0xffd0e>
 372:	7f 9f                	jg     313 <mb2_hdr_begin-0xffced>
 374:	04 73                	add    $0x73,%al
 376:	7a 01                	jp     379 <mb2_hdr_begin-0xffc87>
 378:	52                   	push   %edx
 379:	04 7a                	add    $0x7a,%al
 37b:	7c 07                	jl     384 <mb2_hdr_begin-0xffc7c>
 37d:	91                   	xchg   %eax,%ecx
 37e:	00 06                	add    %al,(%esi)
 380:	08 80 1c 9f 04 7c    	or     %al,0x7c049f1c(%eax)
 386:	93                   	xchg   %eax,%ebx
 387:	01 01                	add    %eax,(%ecx)
 389:	52                   	push   %edx
 38a:	04 93                	add    $0x93,%al
 38c:	01 9b 01 07 91 00    	add    %ebx,0x910701(%ebx)
 392:	06                   	push   %es
 393:	08 80 1c 9f 04 9b    	or     %al,-0x64fb60e4(%eax)
 399:	01 b3 01 04 70 80    	add    %esi,-0x7f8ffbff(%ebx)
 39f:	7f 9f                	jg     340 <mb2_hdr_begin-0xffcc0>
 3a1:	04 b3                	add    $0xb3,%al
 3a3:	01 be 01 07 91 00    	add    %edi,0x910701(%esi)
 3a9:	06                   	push   %es
 3aa:	08 80 1c 9f 00 02    	or     %al,0x2009f1c(%eax)
 3b0:	01 04 9b             	add    %eax,(%ebx,%ebx,4)
 3b3:	01 b4 01 03 08 9d 9f 	add    %esi,-0x6062f7fd(%ecx,%eax,1)
 3ba:	00 11                	add    %dl,(%ecx)
 3bc:	00 00                	add    %al,(%eax)
 3be:	00 05 00 04 00 00    	add    %al,0x400
 3c4:	00 00                	add    %al,(%eax)
 3c6:	00 00                	add    %al,(%eax)
 3c8:	00 04 00             	add    %al,(%eax,%eax,1)
 3cb:	41                   	inc    %ecx
 3cc:	02 91 00 00 23 00    	add    0x230000(%ecx),%dl
 3d2:	00 00                	add    %al,(%eax)
 3d4:	05 00 04 00 00       	add    $0x400,%eax
 3d9:	00 00                	add    %al,(%eax)
 3db:	00 02                	add    %al,(%edx)
 3dd:	00 04 20             	add    %al,(%eax,%eiz,1)
 3e0:	24 03                	and    $0x3,%al
 3e2:	08 80 9f 00 02 00    	or     %al,0x2009f(%eax)
 3e8:	04 20                	add    $0x20,%al
 3ea:	24 02                	and    $0x2,%al
 3ec:	30 9f 00 00 00 04    	xor    %bl,0x4000000(%edi)
 3f2:	07                   	pop    %es
 3f3:	09 01                	or     %eax,(%ecx)
 3f5:	50                   	push   %eax
 3f6:	00 2e                	add    %ch,(%esi)
 3f8:	00 00                	add    %al,(%eax)
 3fa:	00 05 00 04 00 00    	add    %al,0x400
 400:	00 00                	add    %al,(%eax)
 402:	00 00                	add    %al,(%eax)
 404:	00 04 40             	add    %al,(%eax,%eax,2)
 407:	94                   	xchg   %eax,%esp
 408:	02 02                	add    (%edx),%al
 40a:	91                   	xchg   %eax,%ecx
 40b:	00 00                	add    %al,(%eax)
 40d:	00 00                	add    %al,(%eax)
 40f:	04 40                	add    $0x40,%al
 411:	97                   	xchg   %eax,%edi
 412:	02 02                	add    (%edx),%al
 414:	91                   	xchg   %eax,%ecx
 415:	04 00                	add    $0x0,%al
 417:	00 00                	add    %al,(%eax)
 419:	04 60                	add    $0x60,%al
 41b:	9b                   	fwait
 41c:	02 01                	add    (%ecx),%al
 41e:	53                   	push   %ebx
 41f:	00 00                	add    %al,(%eax)
 421:	00 04 65 68 02 91 5f 	add    %al,0x5f910268(,%eiz,2)
 428:	00 d2                	add    %dl,%dl
 42a:	04 00                	add    $0x0,%al
 42c:	00 05 00 04 00 00    	add    %al,0x400
 432:	00 00                	add    %al,(%eax)
 434:	00 00                	add    %al,(%eax)
 436:	00 02                	add    %al,(%edx)
 438:	00 00                	add    %al,(%eax)
 43a:	00 00                	add    %al,(%eax)
 43c:	00 00                	add    %al,(%eax)
 43e:	00 03                	add    %al,(%ebx)
 440:	00 01                	add    %al,(%ecx)
 442:	00 00                	add    %al,(%eax)
 444:	00 00                	add    %al,(%eax)
 446:	00 03                	add    %al,(%ebx)
 448:	00 00                	add    %al,(%eax)
 44a:	00 00                	add    %al,(%eax)
 44c:	00 04 00             	add    %al,(%eax,%eax,1)
 44f:	26 02 91 00 04 a4 03 	add    %es:0x3a40400(%ecx),%dl
 456:	ae                   	scas   %es:(%edi),%al
 457:	03 03                	add    (%ebx),%eax
 459:	73 05                	jae    460 <mb2_hdr_begin-0xffba0>
 45b:	9f                   	lahf
 45c:	04 ae                	add    $0xae,%al
 45e:	03 c0                	add    %eax,%eax
 460:	03 03                	add    (%ebx),%eax
 462:	73 02                	jae    466 <mb2_hdr_begin-0xffb9a>
 464:	9f                   	lahf
 465:	04 fe                	add    $0xfe,%al
 467:	03 85 04 03 73 06    	add    0x6730304(%ebp),%eax
 46d:	9f                   	lahf
 46e:	04 85                	add    $0x85,%al
 470:	04 87                	add    $0x87,%al
 472:	04 03                	add    $0x3,%al
 474:	73 04                	jae    47a <mb2_hdr_begin-0xffb86>
 476:	9f                   	lahf
 477:	04 94                	add    $0x94,%al
 479:	05 9b 05 03 73       	add    $0x7303059b,%eax
 47e:	02 9f 04 89 06 90    	add    -0x6ff976fc(%edi),%bl
 484:	06                   	push   %es
 485:	01 50 04             	add    %edx,0x4(%eax)
 488:	bc 06 c2 06 03       	mov    $0x306c206,%esp
 48d:	73 06                	jae    495 <mb2_hdr_begin-0xffb6b>
 48f:	9f                   	lahf
 490:	04 c2                	add    $0xc2,%al
 492:	06                   	push   %es
 493:	c7 06 03 73 04 9f    	movl   $0x9f047303,(%esi)
 499:	04 c9                	add    $0xc9,%al
 49b:	06                   	push   %es
 49c:	d3 06                	roll   %cl,(%esi)
 49e:	06                   	push   %es
 49f:	77 00                	ja     4a1 <mb2_hdr_begin-0xffb5f>
 4a1:	72 00                	jb     4a3 <mb2_hdr_begin-0xffb5d>
 4a3:	22 9f 04 ef 06 ff    	and    -0xf910fc(%edi),%bl
 4a9:	06                   	push   %es
 4aa:	03 73 02             	add    0x2(%ebx),%esi
 4ad:	9f                   	lahf
 4ae:	04 ff                	add    $0xff,%al
 4b0:	06                   	push   %es
 4b1:	fb                   	sti
 4b2:	07                   	pop    %es
 4b3:	06                   	push   %es
 4b4:	91                   	xchg   %eax,%ecx
 4b5:	00 06                	add    %al,(%esi)
 4b7:	23 02                	and    (%edx),%eax
 4b9:	9f                   	lahf
	...
 4d6:	00 00                	add    %al,(%eax)
 4d8:	00 04 0f             	add    %al,(%edi,%ecx,1)
 4db:	12 01                	adc    (%ecx),%al
 4dd:	50                   	push   %eax
 4de:	04 12                	add    $0x12,%al
 4e0:	b7 01                	mov    $0x1,%bh
 4e2:	02 91 44 04 c2 01    	add    0x1c20444(%ecx),%dl
 4e8:	d0 01                	rolb   $1,(%ecx)
 4ea:	02 91 44 04 d0 01    	add    0x1d00444(%ecx),%dl
 4f0:	d5 01                	aad    $0x1
 4f2:	01 52 04             	add    %edx,0x4(%edx)
 4f5:	d5 01                	aad    $0x1
 4f7:	a6                   	cmpsb  %es:(%edi),%ds:(%esi)
 4f8:	02 02                	add    (%edx),%al
 4fa:	91                   	xchg   %eax,%ecx
 4fb:	44                   	inc    %esp
 4fc:	04 a6                	add    $0xa6,%al
 4fe:	02 a8 02 01 52 04    	add    0x4520102(%eax),%ch
 504:	a8 02                	test   $0x2,%al
 506:	b8 03 02 91 44       	mov    $0x44910203,%eax
 50b:	04 b8                	add    $0xb8,%al
 50d:	03 c0                	add    %eax,%eax
 50f:	03 01                	add    (%ecx),%eax
 511:	52                   	push   %edx
 512:	04 c0                	add    $0xc0,%al
 514:	03 db                	add    %ebx,%ebx
 516:	03 02                	add    (%edx),%eax
 518:	91                   	xchg   %eax,%ecx
 519:	44                   	inc    %esp
 51a:	04 db                	add    $0xdb,%al
 51c:	03 de                	add    %esi,%ebx
 51e:	03 01                	add    (%ecx),%eax
 520:	52                   	push   %edx
 521:	04 de                	add    $0xde,%al
 523:	03 9d 04 02 91 44    	add    0x44910204(%ebp),%ebx
 529:	04 9d                	add    $0x9d,%al
 52b:	04 b0                	add    $0xb0,%al
 52d:	04 01                	add    $0x1,%al
 52f:	52                   	push   %edx
 530:	04 b0                	add    $0xb0,%al
 532:	04 ef                	add    $0xef,%al
 534:	06                   	push   %es
 535:	02 91 44 04 ef 06    	add    0x6ef0444(%ecx),%dl
 53b:	ff 06                	incl   (%esi)
 53d:	01 52 04             	add    %edx,0x4(%edx)
 540:	ff 06                	incl   (%esi)
 542:	89 08                	mov    %ecx,(%eax)
 544:	02 91 44 00 01 00    	add    0x10044(%ecx),%dl
	...
 55a:	00 00                	add    %al,(%eax)
 55c:	03 00                	add    (%eax),%eax
	...
 56a:	00 00                	add    %al,(%eax)
 56c:	00 02                	add    %al,(%edx)
 56e:	02 00                	add    (%eax),%al
 570:	00 00                	add    %al,(%eax)
 572:	00 00                	add    %al,(%eax)
 574:	00 02                	add    %al,(%edx)
 576:	02 00                	add    (%eax),%al
 578:	00 00                	add    %al,(%eax)
 57a:	04 0f                	add    $0xf,%al
 57c:	26 02 30             	add    %es:(%eax),%dh
 57f:	9f                   	lahf
 580:	04 26                	add    $0x26,%al
 582:	b7 01                	mov    $0x1,%bh
 584:	02 91 4c 04 c2 01    	add    0x1c2044c(%ecx),%dl
 58a:	d5 01                	aad    $0x1
 58c:	01 51 04             	add    %edx,0x4(%ecx)
 58f:	d5 01                	aad    $0x1
 591:	99                   	cltd
 592:	02 02                	add    (%edx),%al
 594:	91                   	xchg   %eax,%ecx
 595:	4c                   	dec    %esp
 596:	04 99                	add    $0x99,%al
 598:	02 c0                	add    %al,%al
 59a:	02 01                	add    (%ecx),%al
 59c:	51                   	push   %ecx
 59d:	04 c0                	add    $0xc0,%al
 59f:	02 a4 03 02 91 4c 04 	add    0x44c9102(%ebx,%eax,1),%ah
 5a6:	a4                   	movsb  %ds:(%esi),%es:(%edi)
 5a7:	03 c0                	add    %eax,%eax
 5a9:	03 01                	add    (%ecx),%eax
 5ab:	51                   	push   %ecx
 5ac:	04 c0                	add    $0xc0,%al
 5ae:	03 d0                	add    %eax,%edx
 5b0:	03 02                	add    (%edx),%eax
 5b2:	91                   	xchg   %eax,%ecx
 5b3:	4c                   	dec    %esp
 5b4:	04 d0                	add    $0xd0,%al
 5b6:	03 f1                	add    %ecx,%esi
 5b8:	03 01                	add    (%ecx),%eax
 5ba:	51                   	push   %ecx
 5bb:	04 f1                	add    $0xf1,%al
 5bd:	03 82 04 02 91 4c    	add    0x4c910204(%edx),%eax
 5c3:	04 85                	add    $0x85,%al
 5c5:	04 87                	add    $0x87,%al
 5c7:	04 02                	add    $0x2,%al
 5c9:	91                   	xchg   %eax,%ecx
 5ca:	4c                   	dec    %esp
 5cb:	04 87                	add    $0x87,%al
 5cd:	04 b0                	add    $0xb0,%al
 5cf:	04 01                	add    $0x1,%al
 5d1:	51                   	push   %ecx
 5d2:	04 b0                	add    $0xb0,%al
 5d4:	04 94                	add    $0x94,%al
 5d6:	05 02 91 4c 04       	add    $0x44c9102,%eax
 5db:	94                   	xchg   %eax,%esp
 5dc:	05 cd 05 01 51       	add    $0x510105cd,%eax
 5e1:	04 cd                	add    $0xcd,%al
 5e3:	05 86 06 02 91       	add    $0x91020686,%eax
 5e8:	4c                   	dec    %esp
 5e9:	04 90                	add    $0x90,%al
 5eb:	06                   	push   %es
 5ec:	98                   	cwtl
 5ed:	06                   	push   %es
 5ee:	02 91 4c 04 a0 06    	add    0x6a0044c(%ecx),%dl
 5f4:	a3 06 01 51 04       	mov    %eax,0x4510106
 5f9:	a3 06 bf 06 02       	mov    %eax,0x206bf06
 5fe:	91                   	xchg   %eax,%ecx
 5ff:	4c                   	dec    %esp
 600:	04 c7                	add    $0xc7,%al
 602:	06                   	push   %es
 603:	c9                   	leave
 604:	06                   	push   %es
 605:	02 91 4c 04 c9 06    	add    0x6c9044c(%ecx),%dl
 60b:	cc                   	int3
 60c:	06                   	push   %es
 60d:	07                   	pop    %es
 60e:	91                   	xchg   %eax,%ecx
 60f:	4c                   	dec    %esp
 610:	06                   	push   %es
 611:	72 00                	jb     613 <mb2_hdr_begin-0xff9ed>
 613:	22 9f 04 cc 06 ef    	and    -0x10f933fc(%edi),%bl
 619:	06                   	push   %es
 61a:	02 91 4c 04 ef 06    	add    0x6ef044c(%ecx),%dl
 620:	f7 06 01 51 04 f7    	testl  $0xf7045101,(%esi)
 626:	06                   	push   %es
 627:	f3 07                	repz pop %es
 629:	02 91 4c 04 f3 07    	add    0x7f3044c(%ecx),%dl
 62f:	f6 07 07             	testb  $0x7,(%edi)
 632:	91                   	xchg   %eax,%ecx
 633:	4c                   	dec    %esp
 634:	06                   	push   %es
 635:	77 00                	ja     637 <mb2_hdr_begin-0xff9c9>
 637:	22 9f 04 f6 07 89    	and    -0x76f809fc(%edi),%bl
 63d:	08 02                	or     %al,(%edx)
 63f:	91                   	xchg   %eax,%ecx
 640:	4c                   	dec    %esp
	...
 64d:	00 00                	add    %al,(%eax)
 64f:	00 04 3d 4a 01 50 04 	add    %al,0x450014a(,%edi,1)
 656:	4a                   	dec    %edx
 657:	af                   	scas   %es:(%edi),%eax
 658:	01 02                	add    %eax,(%edx)
 65a:	91                   	xchg   %eax,%ecx
 65b:	48                   	dec    %eax
 65c:	04 af                	add    $0xaf,%al
 65e:	01 b7 01 0a 0c ff    	add    %esi,-0xf3f5ff(%edi)
 664:	ff                   	(bad)
 665:	ff                   	(bad)
 666:	7f 91                	jg     5f9 <mb2_hdr_begin-0xffa07>
 668:	4c                   	dec    %esp
 669:	06                   	push   %es
 66a:	1c 9f                	sbb    $0x9f,%al
 66c:	04 c2                	add    $0xc2,%al
 66e:	01 c3                	add    %eax,%ebx
 670:	03 02                	add    (%edx),%eax
 672:	91                   	xchg   %eax,%ecx
 673:	48                   	dec    %eax
 674:	04 d0                	add    $0xd0,%al
 676:	03 d0                	add    %eax,%edx
 678:	05 02 91 48 04       	add    $0x4489102,%eax
 67d:	d0 05 86 06 0a 0c    	rolb   $1,0xc0a0686
 683:	ff                   	(bad)
 684:	ff                   	(bad)
 685:	ff                   	(bad)
 686:	7f 91                	jg     619 <mb2_hdr_begin-0xff9e7>
 688:	4c                   	dec    %esp
 689:	06                   	push   %es
 68a:	1c 9f                	sbb    $0x9f,%al
 68c:	04 90                	add    $0x90,%al
 68e:	06                   	push   %es
 68f:	89 08                	mov    %ecx,(%eax)
 691:	02 91 48 00 02 00    	add    0x20048(%ecx),%dl
	...
 6a3:	00 00                	add    %al,(%eax)
 6a5:	03 00                	add    (%eax),%eax
 6a7:	00 00                	add    %al,(%eax)
 6a9:	00 00                	add    %al,(%eax)
 6ab:	04 a4                	add    $0xa4,%al
 6ad:	03 ae 03 03 73 04    	add    0x4730303(%esi),%ebp
 6b3:	9f                   	lahf
 6b4:	04 ae                	add    $0xae,%al
 6b6:	03 c0                	add    %eax,%eax
 6b8:	03 03                	add    (%ebx),%eax
 6ba:	73 02                	jae    6be <mb2_hdr_begin-0xff942>
 6bc:	9f                   	lahf
 6bd:	04 fe                	add    $0xfe,%al
 6bf:	03 85 04 03 73 04    	add    0x4730304(%ebp),%eax
 6c5:	9f                   	lahf
 6c6:	04 85                	add    $0x85,%al
 6c8:	04 87                	add    $0x87,%al
 6ca:	04 03                	add    $0x3,%al
 6cc:	73 02                	jae    6d0 <mb2_hdr_begin-0xff930>
 6ce:	9f                   	lahf
 6cf:	04 95                	add    $0x95,%al
 6d1:	06                   	push   %es
 6d2:	9b                   	fwait
 6d3:	06                   	push   %es
 6d4:	03 73 04             	add    0x4(%ebx),%esi
 6d7:	9f                   	lahf
 6d8:	04 9b                	add    $0x9b,%al
 6da:	06                   	push   %es
 6db:	a0 06 03 73 02       	mov    0x2730306,%al
 6e0:	9f                   	lahf
 6e1:	04 bc                	add    $0xbc,%al
 6e3:	06                   	push   %es
 6e4:	c2 06 03             	ret    $0x306
 6e7:	73 04                	jae    6ed <mb2_hdr_begin-0xff913>
 6e9:	9f                   	lahf
 6ea:	04 c2                	add    $0xc2,%al
 6ec:	06                   	push   %es
 6ed:	c7 06 03 73 02 9f    	movl   $0x9f027303,(%esi)
 6f3:	04 c9                	add    $0xc9,%al
 6f5:	06                   	push   %es
 6f6:	d3 06                	roll   %cl,(%esi)
 6f8:	06                   	push   %es
 6f9:	77 00                	ja     6fb <mb2_hdr_begin-0xff905>
 6fb:	72 00                	jb     6fd <mb2_hdr_begin-0xff903>
 6fd:	22 9f 04 ef 06 ff    	and    -0xf910fc(%edi),%bl
 703:	06                   	push   %es
 704:	03 73 02             	add    0x2(%ebx),%esi
 707:	9f                   	lahf
 708:	04 ff                	add    $0xff,%al
 70a:	06                   	push   %es
 70b:	fb                   	sti
 70c:	07                   	pop    %es
 70d:	06                   	push   %es
 70e:	91                   	xchg   %eax,%ecx
 70f:	00 06                	add    %al,(%esi)
 711:	23 02                	and    (%edx),%eax
 713:	9f                   	lahf
 714:	00 01                	add    %al,(%ecx)
 716:	00 00                	add    %al,(%eax)
 718:	00 00                	add    %al,(%eax)
 71a:	00 04 9b             	add    %al,(%ebx,%ebx,4)
 71d:	05 ac 05 02 31       	add    $0x310205ac,%eax
 722:	9f                   	lahf
 723:	04 ac                	add    $0xac,%al
 725:	05 cd 05 01 56       	add    $0x560105cd,%eax
 72a:	04 a0                	add    $0xa0,%al
 72c:	06                   	push   %es
 72d:	b7 06                	mov    $0x6,%bh
 72f:	02 31                	add    (%ecx),%dh
 731:	9f                   	lahf
 732:	00 00                	add    %al,(%eax)
 734:	00 00                	add    %al,(%eax)
 736:	00 04 db             	add    %al,(%ebx,%ebx,8)
 739:	03 e9                	add    %ecx,%ebp
 73b:	03 02                	add    (%edx),%eax
 73d:	70 00                	jo     73f <mb2_hdr_begin-0xff8c1>
 73f:	04 e9                	add    $0xe9,%al
 741:	03 ed                	add    %ebp,%ebp
 743:	03 05 91 44 06 34    	add    0x34064491,%eax
 749:	1c 00                	sbb    $0x0,%al
 74b:	00 00                	add    %al,(%eax)
 74d:	00 00                	add    %al,(%eax)
 74f:	04 db                	add    $0xdb,%al
 751:	01 f4                	add    %esi,%esp
 753:	01 01                	add    %eax,(%ecx)
 755:	50                   	push   %eax
 756:	04 f4                	add    $0xf4,%al
 758:	01 99 02 01 56 00    	add    %ebx,0x560102(%ecx)
 75e:	02 00                	add    (%eax),%al
 760:	00 00                	add    %al,(%eax)
 762:	00 00                	add    %al,(%eax)
 764:	00 00                	add    %al,(%eax)
 766:	00 01                	add    %al,(%ecx)
 768:	01 00                	add    %eax,(%eax)
 76a:	00 00                	add    %al,(%eax)
 76c:	04 b8                	add    $0xb8,%al
 76e:	03 c0                	add    %eax,%eax
 770:	03 03                	add    (%ebx),%eax
 772:	91                   	xchg   %eax,%ecx
 773:	5f                   	pop    %edi
 774:	9f                   	lahf
 775:	04 ef                	add    $0xef,%al
 777:	06                   	push   %es
 778:	f7 06 03 91 5f 9f    	testl  $0x9f5f9103,(%esi)
 77e:	04 f7                	add    $0xf7,%al
 780:	06                   	push   %es
 781:	ff 06                	incl   (%esi)
 783:	01 51 04             	add    %edx,0x4(%ecx)
 786:	87 07                	xchg   %eax,(%edi)
 788:	8a 07                	mov    (%edi),%al
 78a:	03 71 7f             	add    0x7f(%ecx),%esi
 78d:	9f                   	lahf
 78e:	04 8a                	add    $0x8a,%al
 790:	07                   	pop    %es
 791:	b2 07                	mov    $0x7,%dl
 793:	01 51 04             	add    %edx,0x4(%ecx)
 796:	b2 07                	mov    $0x7,%dl
 798:	b9 07 03 70 7e       	mov    $0x7e700307,%ecx
 79d:	9f                   	lahf
 79e:	04 b9                	add    $0xb9,%al
 7a0:	07                   	pop    %es
 7a1:	cf                   	iret
 7a2:	07                   	pop    %es
 7a3:	01 51 00             	add    %edx,0x0(%ecx)
 7a6:	01 00                	add    %eax,(%eax)
 7a8:	00 00                	add    %al,(%eax)
 7aa:	01 00                	add    %eax,(%eax)
 7ac:	00 00                	add    %al,(%eax)
 7ae:	01 00                	add    %eax,(%eax)
 7b0:	00 00                	add    %al,(%eax)
 7b2:	04 b3                	add    $0xb3,%al
 7b4:	02 be 02 03 91 5e    	add    0x5e910302(%esi),%bh
 7ba:	9f                   	lahf
 7bb:	04 be                	add    $0xbe,%al
 7bd:	02 c0                	add    %al,%al
 7bf:	02 01                	add    (%ecx),%al
 7c1:	56                   	push   %esi
 7c2:	04 c0                	add    $0xc0,%al
 7c4:	02 c5                	add    %ch,%al
 7c6:	02 03                	add    (%ebx),%al
 7c8:	70 7f                	jo     849 <mb2_hdr_begin-0xff7b7>
 7ca:	9f                   	lahf
 7cb:	04 c5                	add    $0xc5,%al
 7cd:	02 f3                	add    %bl,%dh
 7cf:	02 01                	add    (%ecx),%al
 7d1:	50                   	push   %eax
 7d2:	04 d3                	add    $0xd3,%al
 7d4:	06                   	push   %es
 7d5:	e5 06                	in     $0x6,%eax
 7d7:	03 91 5d 9f 04 e5    	add    -0x1afb60a3(%ecx),%edx
 7dd:	06                   	push   %es
 7de:	ef                   	out    %eax,(%dx)
 7df:	06                   	push   %es
 7e0:	01 50 00             	add    %edx,0x0(%eax)
 7e3:	03 00                	add    (%eax),%eax
 7e5:	04 b3                	add    $0xb3,%al
 7e7:	02 cb                	add    %bl,%cl
 7e9:	02 01                	add    (%ecx),%al
 7eb:	52                   	push   %edx
 7ec:	00 01                	add    %al,(%ecx)
 7ee:	00 01                	add    %al,(%ecx)
 7f0:	00 04 e2             	add    %al,(%edx,%eiz,8)
 7f3:	02 f3                	add    %bl,%dh
 7f5:	02 09                	add    (%ecx),%cl
 7f7:	91                   	xchg   %eax,%ecx
 7f8:	00 70 00             	add    %dh,0x0(%eax)
 7fb:	1c 08                	sbb    $0x8,%al
 7fd:	22 1c 9f             	and    (%edi,%ebx,4),%bl
 800:	04 da                	add    $0xda,%al
 802:	06                   	push   %es
 803:	ef                   	out    %eax,(%dx)
 804:	06                   	push   %es
 805:	02 31                	add    (%ecx),%dh
 807:	9f                   	lahf
 808:	00 01                	add    %al,(%ecx)
 80a:	00 00                	add    %al,(%eax)
 80c:	00 00                	add    %al,(%eax)
 80e:	00 04 a1             	add    %al,(%ecx,%eiz,4)
 811:	04 ac                	add    $0xac,%al
 813:	04 03                	add    $0x3,%al
 815:	91                   	xchg   %eax,%ecx
 816:	5e                   	pop    %esi
 817:	9f                   	lahf
 818:	04 ac                	add    $0xac,%al
 81a:	04 b0                	add    $0xb0,%al
 81c:	04 01                	add    $0x1,%al
 81e:	56                   	push   %esi
 81f:	04 b0                	add    $0xb0,%al
 821:	04 ed                	add    $0xed,%al
 823:	04 01                	add    $0x1,%al
 825:	52                   	push   %edx
 826:	00 03                	add    %al,(%ebx)
 828:	00 00                	add    %al,(%eax)
 82a:	00 04 a1             	add    %al,(%ecx,%eiz,4)
 82d:	04 b0                	add    $0xb0,%al
 82f:	04 01                	add    $0x1,%al
 831:	57                   	push   %edi
 832:	04 b0                	add    $0xb0,%al
 834:	04 ba                	add    $0xba,%al
 836:	04 01                	add    $0x1,%al
 838:	50                   	push   %eax
	...
 841:	00 04 d3             	add    %al,(%ebx,%edx,8)
 844:	04 ed                	add    $0xed,%al
 846:	04 01                	add    $0x1,%al
 848:	50                   	push   %eax
 849:	04 ed                	add    $0xed,%al
 84b:	04 94                	add    $0x94,%al
 84d:	05 01 57 04 b7       	add    $0xb7045701,%eax
 852:	06                   	push   %es
 853:	bc 06 01 57 04       	mov    $0x4570106,%esp
 858:	fb                   	sti
 859:	07                   	pop    %es
 85a:	82 08 02             	orb    $0x2,(%eax)
 85d:	30 9f 00 00 00 00    	xor    %bl,0x0(%edi)
 863:	00 00                	add    %al,(%eax)
 865:	00 00                	add    %al,(%eax)
 867:	00 00                	add    %al,(%eax)
 869:	00 04 76             	add    %al,(%esi,%esi,2)
 86c:	8c 01                	mov    %es,(%ecx)
 86e:	01 50 04             	add    %edx,0x4(%eax)
 871:	8c 01                	mov    %es,(%ecx)
 873:	af                   	scas   %es:(%edi),%eax
 874:	01 01                	add    %eax,(%ecx)
 876:	53                   	push   %ebx
 877:	04 c7                	add    $0xc7,%al
 879:	06                   	push   %es
 87a:	c9                   	leave
 87b:	06                   	push   %es
 87c:	01 53 04             	add    %edx,0x4(%ebx)
 87f:	c9                   	leave
 880:	06                   	push   %es
 881:	d3 06                	roll   %cl,(%esi)
 883:	01 52 04             	add    %edx,0x4(%edx)
 886:	82 08 89             	orb    $0x89,(%eax)
 889:	08 01                	or     %al,(%ecx)
 88b:	50                   	push   %eax
 88c:	00 00                	add    %al,(%eax)
 88e:	00 00                	add    %al,(%eax)
 890:	00 04 ff             	add    %al,(%edi,%edi,8)
 893:	06                   	push   %es
 894:	a1 07 01 56 04       	mov    0x4560107,%eax
 899:	a1 07 cf 07 01       	mov    0x107cf07,%eax
 89e:	52                   	push   %edx
 89f:	00 00                	add    %al,(%eax)
 8a1:	00 04 be             	add    %al,(%esi,%edi,4)
 8a4:	07                   	pop    %es
 8a5:	fb                   	sti
 8a6:	07                   	pop    %es
 8a7:	01 57 00             	add    %edx,0x0(%edi)
 8aa:	00 00                	add    %al,(%eax)
 8ac:	04 c7                	add    $0xc7,%al
 8ae:	07                   	pop    %es
 8af:	cf                   	iret
 8b0:	07                   	pop    %es
 8b1:	02 30                	add    (%eax),%dh
 8b3:	9f                   	lahf
 8b4:	00 00                	add    %al,(%eax)
 8b6:	00 00                	add    %al,(%eax)
 8b8:	00 04 7b             	add    %al,(%ebx,%edi,2)
 8bb:	8c 01                	mov    %es,(%ecx)
 8bd:	02 30                	add    (%eax),%dh
 8bf:	9f                   	lahf
 8c0:	04 82                	add    $0x82,%al
 8c2:	08 89 08 02 30 9f    	or     %cl,-0x60cffdf8(%ecx)
 8c8:	00 00                	add    %al,(%eax)
 8ca:	00 04 e0             	add    %al,(%eax,%eiz,8)
 8cd:	01 f4                	add    %esi,%esp
 8cf:	01 02                	add    %eax,(%edx)
 8d1:	30 9f 00 00 00 04    	xor    %bl,0x4000000(%edi)
 8d7:	eb 02                	jmp    8db <mb2_hdr_begin-0xff725>
 8d9:	f3 02 02             	repz add (%edx),%al
 8dc:	30 9f 00 00 00 00    	xor    %bl,0x0(%edi)
 8e2:	01 04 e6             	add    %eax,(%esi,%eiz,8)
 8e5:	03 85 04 02 30 9f    	add    -0x60cffdfc(%ebp),%eax
 8eb:	04 85                	add    $0x85,%al
 8ed:	04 85                	add    $0x85,%al
 8ef:	04 02                	add    $0x2,%al
 8f1:	31 9f 00 00 00 04    	xor    %ebx,0x4000000(%edi)
 8f7:	dc 04 ed 04 02 30 9f 	faddl  -0x60cffdfc(,%ebp,8)
 8fe:	00 28                	add    %ch,(%eax)
 900:	00 00                	add    %al,(%eax)
 902:	00 05 00 04 00 00    	add    %al,0x400
 908:	00 00                	add    %al,(%eax)
 90a:	00 00                	add    %al,(%eax)
 90c:	00 00                	add    %al,(%eax)
 90e:	00 04 00             	add    %al,(%eax,%eax,1)
 911:	19 02                	sbb    %eax,(%edx)
 913:	91                   	xchg   %eax,%ecx
 914:	00 04 19             	add    %al,(%ecx,%ebx,1)
 917:	1b 01                	sbb    (%ecx),%eax
 919:	52                   	push   %edx
 91a:	00 02                	add    %al,(%edx)
 91c:	00 00                	add    %al,(%eax)
 91e:	00 04 00             	add    %al,(%eax,%eax,1)
 921:	0d 02 30 9f 04       	or     $0x49f3002,%eax
 926:	0d 19 01 50 00       	or     $0x500119,%eax

Disassembly of section .debug_frame:

00000000 <.debug_frame>:
   0:	10 00                	adc    %al,(%eax)
   2:	00 00                	add    %al,(%eax)
   4:	ff                   	(bad)
   5:	ff                   	(bad)
   6:	ff                   	(bad)
   7:	ff 01                	incl   (%ecx)
   9:	00 01                	add    %al,(%ecx)
   b:	7c 08                	jl     15 <mb2_hdr_begin-0xfffeb>
   d:	0c 04                	or     $0x4,%al
   f:	04 88                	add    $0x88,%al
  11:	01 00                	add    %eax,(%eax)
  13:	00 0c 00             	add    %cl,(%eax,%eax,1)
  16:	00 00                	add    %al,(%eax)
  18:	00 00                	add    %al,(%eax)
  1a:	00 00                	add    %al,(%eax)
  1c:	80 01 10             	addb   $0x10,(%ecx)
  1f:	00 67 00             	add    %ah,0x0(%edi)
  22:	00 00                	add    %al,(%eax)
  24:	1c 00                	sbb    $0x0,%al
  26:	00 00                	add    %al,(%eax)
  28:	00 00                	add    %al,(%eax)
  2a:	00 00                	add    %al,(%eax)
  2c:	f0 01 10             	lock add %edx,(%eax)
  2f:	00 0d 00 00 00 41    	add    %cl,0x41000000
  35:	0e                   	push   %cs
  36:	08 85 02 42 0d 05    	or     %al,0x50d4202(%ebp)
  3c:	44                   	inc    %esp
  3d:	c5 0c 04             	lds    (%esp,%eax,1),%ecx
  40:	04 00                	add    $0x0,%al
  42:	00 00                	add    %al,(%eax)
  44:	1c 00                	sbb    $0x0,%al
  46:	00 00                	add    %al,(%eax)
  48:	00 00                	add    %al,(%eax)
  4a:	00 00                	add    %al,(%eax)
  4c:	00 02                	add    %al,(%edx)
  4e:	10 00                	adc    %al,(%eax)
  50:	28 00                	sub    %al,(%eax)
  52:	00 00                	add    %al,(%eax)
  54:	41                   	inc    %ecx
  55:	0e                   	push   %cs
  56:	08 85 02 42 0d 05    	or     %al,0x50d4202(%ebp)
  5c:	64 c5 0c 04          	lds    %fs:(%esp,%eax,1),%ecx
  60:	04 00                	add    $0x0,%al
  62:	00 00                	add    %al,(%eax)
  64:	48                   	dec    %eax
  65:	00 00                	add    %al,(%eax)
  67:	00 00                	add    %al,(%eax)
  69:	00 00                	add    %al,(%eax)
  6b:	00 30                	add    %dh,(%eax)
  6d:	02 10                	add    (%eax),%dl
  6f:	00 00                	add    %al,(%eax)
  71:	01 00                	add    %eax,(%eax)
  73:	00 41 0e             	add    %al,0xe(%ecx)
  76:	08 85 02 47 0d 05    	or     %al,0x50d4702(%ebp)
  7c:	46                   	inc    %esi
  7d:	87 03                	xchg   %eax,(%ebx)
  7f:	86 04 83             	xchg   %al,(%ebx,%eax,4)
  82:	05 02 46 0a c3       	add    $0xc30a4602,%eax
  87:	41                   	inc    %ecx
  88:	c6 46 c7 41          	movb   $0x41,-0x39(%esi)
  8c:	c5 0c 04             	lds    (%esp,%eax,1),%ecx
  8f:	04 53                	add    $0x53,%al
  91:	0b 41 0a             	or     0xa(%ecx),%eax
  94:	c3                   	ret
  95:	41                   	inc    %ecx
  96:	c6 47 c7 41          	movb   $0x41,-0x39(%edi)
  9a:	c5 0c 04             	lds    (%esp,%eax,1),%ecx
  9d:	04 41                	add    $0x41,%al
  9f:	0b 4e 0a             	or     0xa(%esi),%ecx
  a2:	c3                   	ret
  a3:	44                   	inc    %esp
  a4:	c6 41 c7 4c          	movb   $0x4c,-0x39(%ecx)
  a8:	c5 0c 04             	lds    (%esp,%eax,1),%ecx
  ab:	04 41                	add    $0x41,%al
  ad:	0b 00                	or     (%eax),%eax
  af:	00 24 00             	add    %ah,(%eax,%eax,1)
  b2:	00 00                	add    %al,(%eax)
  b4:	00 00                	add    %al,(%eax)
  b6:	00 00                	add    %al,(%eax)
  b8:	30 03                	xor    %al,(%ebx)
  ba:	10 00                	adc    %al,(%eax)
  bc:	35 00 00 00 41       	xor    $0x41000000,%eax
  c1:	0e                   	push   %cs
  c2:	08 85 02 42 0d 05    	or     %al,0x50d4202(%ebp)
  c8:	42                   	inc    %edx
  c9:	86 03                	xchg   %al,(%ebx)
  cb:	83 04 6d c3 41 c6 41 	addl   $0xffffffc5,0x41c641c3(,%ebp,2)
  d2:	c5 
  d3:	0c 04                	or     $0x4,%al
  d5:	04 00                	add    $0x0,%al
  d7:	00 24 00             	add    %ah,(%eax,%eax,1)
  da:	00 00                	add    %al,(%eax)
  dc:	00 00                	add    %al,(%eax)
  de:	00 00                	add    %al,(%eax)
  e0:	70 03                	jo     e5 <mb2_hdr_begin-0xfff1b>
  e2:	10 00                	adc    %al,(%eax)
  e4:	3d 00 00 00 41       	cmp    $0x41000000,%eax
  e9:	0e                   	push   %cs
  ea:	08 85 02 42 0d 05    	or     %al,0x50d4202(%ebp)
  f0:	42                   	inc    %edx
  f1:	86 03                	xchg   %al,(%ebx)
  f3:	83 04 75 c3 41 c6 41 	addl   $0xffffffc5,0x41c641c3(,%esi,2)
  fa:	c5 
  fb:	0c 04                	or     $0x4,%al
  fd:	04 00                	add    $0x0,%al
  ff:	00 10                	add    %dl,(%eax)
 101:	00 00                	add    %al,(%eax)
 103:	00 ff                	add    %bh,%bh
 105:	ff                   	(bad)
 106:	ff                   	(bad)
 107:	ff 01                	incl   (%ecx)
 109:	00 01                	add    %al,(%ecx)
 10b:	7c 08                	jl     115 <mb2_hdr_begin-0xffeeb>
 10d:	0c 04                	or     $0x4,%al
 10f:	04 88                	add    $0x88,%al
 111:	01 00                	add    %eax,(%eax)
 113:	00 1c 00             	add    %bl,(%eax,%eax,1)
 116:	00 00                	add    %al,(%eax)
 118:	00 01                	add    %al,(%ecx)
 11a:	00 00                	add    %al,(%eax)
 11c:	d0 03                	rolb   $1,(%ebx)
 11e:	10 00                	adc    %al,(%eax)
 120:	2f                   	das
 121:	00 00                	add    %al,(%eax)
 123:	00 41 0e             	add    %al,0xe(%ecx)
 126:	08 85 02 42 0d 05    	or     %al,0x50d4202(%ebp)
 12c:	6b c5 0c             	imul   $0xc,%ebp,%eax
 12f:	04 04                	add    $0x4,%al
 131:	00 00                	add    %al,(%eax)
 133:	00 0c 00             	add    %cl,(%eax,%eax,1)
 136:	00 00                	add    %al,(%eax)
 138:	00 01                	add    %al,(%ecx)
 13a:	00 00                	add    %al,(%eax)
 13c:	00 04 10             	add    %al,(%eax,%edx,1)
 13f:	00 08                	add    %cl,(%eax)
 141:	00 00                	add    %al,(%eax)
 143:	00 1c 00             	add    %bl,(%eax,%eax,1)
 146:	00 00                	add    %al,(%eax)
 148:	00 01                	add    %al,(%ecx)
 14a:	00 00                	add    %al,(%eax)
 14c:	10 04 10             	adc    %al,(%eax,%edx,1)
 14f:	00 91 00 00 00 41    	add    %dl,0x41000000(%ecx)
 155:	0e                   	push   %cs
 156:	08 85 02 4c 0d 05    	or     %al,0x50d4c02(%ebp)
 15c:	02 7f c5             	add    -0x3b(%edi),%bh
 15f:	0c 04                	or     $0x4,%al
 161:	04 00                	add    $0x0,%al
 163:	00 10                	add    %dl,(%eax)
 165:	00 00                	add    %al,(%eax)
 167:	00 ff                	add    %bh,%bh
 169:	ff                   	(bad)
 16a:	ff                   	(bad)
 16b:	ff 01                	incl   (%ecx)
 16d:	00 01                	add    %al,(%ecx)
 16f:	7c 08                	jl     179 <mb2_hdr_begin-0xffe87>
 171:	0c 04                	or     $0x4,%al
 173:	04 88                	add    $0x88,%al
 175:	01 00                	add    %eax,(%eax)
 177:	00 2c 00             	add    %ch,(%eax,%eax,1)
 17a:	00 00                	add    %al,(%eax)
 17c:	64 01 00             	add    %eax,%fs:(%eax)
 17f:	00 b0 04 10 00 91    	add    %dh,-0x6effeffc(%eax)
 185:	00 00                	add    %al,(%eax)
 187:	00 41 0e             	add    %al,0xe(%ecx)
 18a:	08 85 02 42 0d 05    	or     %al,0x50d4202(%ebp)
 190:	46                   	inc    %esi
 191:	87 03                	xchg   %eax,(%ebx)
 193:	86 04 83             	xchg   %al,(%ebx,%eax,4)
 196:	05 02 46 0a c3       	add    $0xc30a4602,%eax
 19b:	41                   	inc    %ecx
 19c:	c6 41 c7 41          	movb   $0x41,-0x39(%ecx)
 1a0:	c5 0c 04             	lds    (%esp,%eax,1),%ecx
 1a3:	04 46                	add    $0x46,%al
 1a5:	0b 00                	or     (%eax),%eax
 1a7:	00 0c 00             	add    %cl,(%eax,%eax,1)
 1aa:	00 00                	add    %al,(%eax)
 1ac:	64 01 00             	add    %eax,%fs:(%eax)
 1af:	00 50 05             	add    %dl,0x5(%eax)
 1b2:	10 00                	adc    %al,(%eax)
 1b4:	08 00                	or     %al,(%eax)
 1b6:	00 00                	add    %al,(%eax)
 1b8:	2c 00                	sub    $0x0,%al
 1ba:	00 00                	add    %al,(%eax)
 1bc:	64 01 00             	add    %eax,%fs:(%eax)
 1bf:	00 60 05             	add    %ah,0x5(%eax)
 1c2:	10 00                	adc    %al,(%eax)
 1c4:	39 01                	cmp    %eax,(%ecx)
 1c6:	00 00                	add    %al,(%eax)
 1c8:	41                   	inc    %ecx
 1c9:	0e                   	push   %cs
 1ca:	08 85 02 44 0d 05    	or     %al,0x50d4402(%ebp)
 1d0:	41                   	inc    %ecx
 1d1:	87 03                	xchg   %eax,(%ebx)
 1d3:	47                   	inc    %edi
 1d4:	86 04 83             	xchg   %al,(%ebx,%eax,4)
 1d7:	05 02 db 0a c3       	add    $0xc30adb02,%eax
 1dc:	41                   	inc    %ecx
 1dd:	c6 41 c7 41          	movb   $0x41,-0x39(%ecx)
 1e1:	c5 0c 04             	lds    (%esp,%eax,1),%ecx
 1e4:	04 45                	add    $0x45,%al
 1e6:	0b 00                	or     (%eax),%eax
 1e8:	10 00                	adc    %al,(%eax)
 1ea:	00 00                	add    %al,(%eax)
 1ec:	ff                   	(bad)
 1ed:	ff                   	(bad)
 1ee:	ff                   	(bad)
 1ef:	ff 01                	incl   (%ecx)
 1f1:	00 01                	add    %al,(%ecx)
 1f3:	7c 08                	jl     1fd <mb2_hdr_begin-0xffe03>
 1f5:	0c 04                	or     $0x4,%al
 1f7:	04 88                	add    $0x88,%al
 1f9:	01 00                	add    %eax,(%eax)
 1fb:	00 1c 00             	add    %bl,(%eax,%eax,1)
 1fe:	00 00                	add    %al,(%eax)
 200:	e8 01 00 00 a0       	call   a0000206 <currentModifiers+0x9fefc768>
 205:	06                   	push   %es
 206:	10 00                	adc    %al,(%eax)
 208:	43                   	inc    %ebx
 209:	00 00                	add    %al,(%eax)
 20b:	00 69 0e             	add    %ch,0xe(%ecx)
 20e:	08 85 02 42 0d 05    	or     %al,0x50d4202(%ebp)
 214:	57                   	push   %edi
 215:	c5 0c 04             	lds    (%esp,%eax,1),%ecx
 218:	04 00                	add    $0x0,%al
 21a:	00 00                	add    %al,(%eax)
 21c:	10 00                	adc    %al,(%eax)
 21e:	00 00                	add    %al,(%eax)
 220:	ff                   	(bad)
 221:	ff                   	(bad)
 222:	ff                   	(bad)
 223:	ff 01                	incl   (%ecx)
 225:	00 01                	add    %al,(%ecx)
 227:	7c 08                	jl     231 <mb2_hdr_begin-0xffdcf>
 229:	0c 04                	or     $0x4,%al
 22b:	04 88                	add    $0x88,%al
 22d:	01 00                	add    %eax,(%eax)
 22f:	00 24 00             	add    %ah,(%eax,%eax,1)
 232:	00 00                	add    %al,(%eax)
 234:	1c 02                	sbb    $0x2,%al
 236:	00 00                	add    %al,(%eax)
 238:	f0 06                	lock push %es
 23a:	10 00                	adc    %al,(%eax)
 23c:	5e                   	pop    %esi
 23d:	00 00                	add    %al,(%eax)
 23f:	00 41 0e             	add    %al,0xe(%ecx)
 242:	08 85 02 42 0d 05    	or     %al,0x50d4202(%ebp)
 248:	53                   	push   %ebx
 249:	0a c5                	or     %ch,%al
 24b:	0c 04                	or     $0x4,%al
 24d:	04 4a                	add    $0x4a,%al
 24f:	0b 7d c5             	or     -0x3b(%ebp),%edi
 252:	0c 04                	or     $0x4,%al
 254:	04 00                	add    $0x0,%al
 256:	00 00                	add    %al,(%eax)
 258:	24 00                	and    $0x0,%al
 25a:	00 00                	add    %al,(%eax)
 25c:	1c 02                	sbb    $0x2,%al
 25e:	00 00                	add    %al,(%eax)
 260:	50                   	push   %eax
 261:	07                   	pop    %es
 262:	10 00                	adc    %al,(%eax)
 264:	5e                   	pop    %esi
 265:	00 00                	add    %al,(%eax)
 267:	00 41 0e             	add    %al,0xe(%ecx)
 26a:	08 85 02 42 0d 05    	or     %al,0x50d4202(%ebp)
 270:	58                   	pop    %eax
 271:	0a c5                	or     %ch,%al
 273:	0c 04                	or     $0x4,%al
 275:	04 45                	add    $0x45,%al
 277:	0b 7d c5             	or     -0x3b(%ebp),%edi
 27a:	0c 04                	or     $0x4,%al
 27c:	04 00                	add    $0x0,%al
 27e:	00 00                	add    %al,(%eax)
 280:	3c 00                	cmp    $0x0,%al
 282:	00 00                	add    %al,(%eax)
 284:	1c 02                	sbb    $0x2,%al
 286:	00 00                	add    %al,(%eax)
 288:	b0 07                	mov    $0x7,%al
 28a:	10 00                	adc    %al,(%eax)
 28c:	e0 00                	loopne 28e <mb2_hdr_begin-0xffd72>
 28e:	00 00                	add    %al,(%eax)
 290:	41                   	inc    %ecx
 291:	0e                   	push   %cs
 292:	08 85 02 42 0d 05    	or     %al,0x50d4202(%ebp)
 298:	42                   	inc    %edx
 299:	86 03                	xchg   %al,(%ebx)
 29b:	83 04 02 9c          	addl   $0xffffff9c,(%edx,%eax,1)
 29f:	0a c3                	or     %bl,%al
 2a1:	41                   	inc    %ecx
 2a2:	c6 41 c5 0c          	movb   $0xc,-0x3b(%ecx)
 2a6:	04 04                	add    $0x4,%al
 2a8:	45                   	inc    %ebp
 2a9:	0b 50 0a             	or     0xa(%eax),%edx
 2ac:	c3                   	ret
 2ad:	41                   	inc    %ecx
 2ae:	c6 41 c5 0c          	movb   $0xc,-0x3b(%ecx)
 2b2:	04 04                	add    $0x4,%al
 2b4:	46                   	inc    %esi
 2b5:	0b 5d c3             	or     -0x3d(%ebp),%ebx
 2b8:	41                   	inc    %ecx
 2b9:	c6 41 c5 0c          	movb   $0xc,-0x3b(%ecx)
 2bd:	04 04                	add    $0x4,%al
 2bf:	00 10                	add    %dl,(%eax)
 2c1:	00 00                	add    %al,(%eax)
 2c3:	00 ff                	add    %bh,%bh
 2c5:	ff                   	(bad)
 2c6:	ff                   	(bad)
 2c7:	ff 01                	incl   (%ecx)
 2c9:	00 01                	add    %al,(%ecx)
 2cb:	7c 08                	jl     2d5 <mb2_hdr_begin-0xffd2b>
 2cd:	0c 04                	or     $0x4,%al
 2cf:	04 88                	add    $0x88,%al
 2d1:	01 00                	add    %eax,(%eax)
 2d3:	00 20                	add    %ah,(%eax)
 2d5:	00 00                	add    %al,(%eax)
 2d7:	00 c0                	add    %al,%al
 2d9:	02 00                	add    (%eax),%al
 2db:	00 d0                	add    %dl,%al
 2dd:	08 10                	or     %dl,(%eax)
 2df:	00 47 00             	add    %al,0x0(%edi)
 2e2:	00 00                	add    %al,(%eax)
 2e4:	41                   	inc    %ecx
 2e5:	0e                   	push   %cs
 2e6:	08 85 02 42 0d 05    	or     %al,0x50d4202(%ebp)
 2ec:	44                   	inc    %esp
 2ed:	83 03 7b             	addl   $0x7b,(%ebx)
 2f0:	c5 c3 0c             	(bad)
 2f3:	04 04                	add    $0x4,%al
 2f5:	00 00                	add    %al,(%eax)
 2f7:	00 10                	add    %dl,(%eax)
 2f9:	00 00                	add    %al,(%eax)
 2fb:	00 ff                	add    %bh,%bh
 2fd:	ff                   	(bad)
 2fe:	ff                   	(bad)
 2ff:	ff 01                	incl   (%ecx)
 301:	00 01                	add    %al,(%ecx)
 303:	7c 08                	jl     30d <mb2_hdr_begin-0xffcf3>
 305:	0c 04                	or     $0x4,%al
 307:	04 88                	add    $0x88,%al
 309:	01 00                	add    %eax,(%eax)
 30b:	00 1c 00             	add    %bl,(%eax,%eax,1)
 30e:	00 00                	add    %al,(%eax)
 310:	f8                   	clc
 311:	02 00                	add    (%eax),%al
 313:	00 20                	add    %ah,(%eax)
 315:	09 10                	or     %edx,(%eax)
 317:	00 09                	add    %cl,(%ecx)
 319:	00 00                	add    %al,(%eax)
 31b:	00 41 0e             	add    %al,0xe(%ecx)
 31e:	08 85 02 42 0d 05    	or     %al,0x50d4202(%ebp)
 324:	45                   	inc    %ebp
 325:	c5 0c 04             	lds    (%esp,%eax,1),%ecx
 328:	04 00                	add    $0x0,%al
 32a:	00 00                	add    %al,(%eax)
 32c:	1c 00                	sbb    $0x0,%al
 32e:	00 00                	add    %al,(%eax)
 330:	f8                   	clc
 331:	02 00                	add    (%eax),%al
 333:	00 30                	add    %dh,(%eax)
 335:	09 10                	or     %edx,(%eax)
 337:	00 0e                	add    %cl,(%esi)
 339:	00 00                	add    %al,(%eax)
 33b:	00 41 0e             	add    %al,0xe(%ecx)
 33e:	08 85 02 42 0d 05    	or     %al,0x50d4202(%ebp)
 344:	4a                   	dec    %edx
 345:	c5 0c 04             	lds    (%esp,%eax,1),%ecx
 348:	04 00                	add    $0x0,%al
 34a:	00 00                	add    %al,(%eax)
 34c:	0c 00                	or     $0x0,%al
 34e:	00 00                	add    %al,(%eax)
 350:	f8                   	clc
 351:	02 00                	add    (%eax),%al
 353:	00 40 09             	add    %al,0x9(%eax)
 356:	10 00                	adc    %al,(%eax)
 358:	05 00 00 00 10       	add    $0x10000000,%eax
 35d:	00 00                	add    %al,(%eax)
 35f:	00 ff                	add    %bh,%bh
 361:	ff                   	(bad)
 362:	ff                   	(bad)
 363:	ff 01                	incl   (%ecx)
 365:	00 01                	add    %al,(%ecx)
 367:	7c 08                	jl     371 <mb2_hdr_begin-0xffc8f>
 369:	0c 04                	or     $0x4,%al
 36b:	04 88                	add    $0x88,%al
 36d:	01 00                	add    %eax,(%eax)
 36f:	00 1c 00             	add    %bl,(%eax,%eax,1)
 372:	00 00                	add    %al,(%eax)
 374:	5c                   	pop    %esp
 375:	03 00                	add    (%eax),%eax
 377:	00 50 09             	add    %dl,0x9(%eax)
 37a:	10 00                	adc    %al,(%eax)
 37c:	34 00                	xor    $0x0,%al
 37e:	00 00                	add    %al,(%eax)
 380:	41                   	inc    %ecx
 381:	0e                   	push   %cs
 382:	08 85 02 42 0d 05    	or     %al,0x50d4202(%ebp)
 388:	59                   	pop    %ecx
 389:	0a c5                	or     %ch,%al
 38b:	0c 04                	or     $0x4,%al
 38d:	04 44                	add    $0x44,%al
 38f:	0b 28                	or     (%eax),%ebp
 391:	00 00                	add    %al,(%eax)
 393:	00 5c 03 00          	add    %bl,0x0(%ebx,%eax,1)
 397:	00 90 09 10 00 e3    	add    %dl,-0x1cffeff7(%eax)
 39d:	00 00                	add    %al,(%eax)
 39f:	00 41 0e             	add    %al,0xe(%ecx)
 3a2:	08 85 02 42 0d 05    	or     %al,0x50d4202(%ebp)
 3a8:	46                   	inc    %esi
 3a9:	87 03                	xchg   %eax,(%ebx)
 3ab:	86 04 83             	xchg   %al,(%ebx,%eax,4)
 3ae:	05 02 d2 c3 41       	add    $0x41c3d202,%eax
 3b3:	c6 41 c7 41          	movb   $0x41,-0x39(%ecx)
 3b7:	c5 0c 04             	lds    (%esp,%eax,1),%ecx
 3ba:	04 00                	add    $0x0,%al
 3bc:	10 00                	adc    %al,(%eax)
 3be:	00 00                	add    %al,(%eax)
 3c0:	ff                   	(bad)
 3c1:	ff                   	(bad)
 3c2:	ff                   	(bad)
 3c3:	ff 01                	incl   (%ecx)
 3c5:	00 01                	add    %al,(%ecx)
 3c7:	7c 08                	jl     3d1 <mb2_hdr_begin-0xffc2f>
 3c9:	0c 04                	or     $0x4,%al
 3cb:	04 88                	add    $0x88,%al
 3cd:	01 00                	add    %eax,(%eax)
 3cf:	00 14 00             	add    %dl,(%eax,%eax,1)
 3d2:	00 00                	add    %al,(%eax)
 3d4:	bc 03 00 00 80       	mov    $0x80000003,%esp
 3d9:	0a 10                	or     (%eax),%dl
 3db:	00 73 00             	add    %dh,0x0(%ebx)
 3de:	00 00                	add    %al,(%eax)
 3e0:	41                   	inc    %ecx
 3e1:	0e                   	push   %cs
 3e2:	08 85 02 42 0d 05    	or     %al,0x50d4202(%ebp)
 3e8:	10 00                	adc    %al,(%eax)
 3ea:	00 00                	add    %al,(%eax)
 3ec:	ff                   	(bad)
 3ed:	ff                   	(bad)
 3ee:	ff                   	(bad)
 3ef:	ff 01                	incl   (%ecx)
 3f1:	00 01                	add    %al,(%ecx)
 3f3:	7c 08                	jl     3fd <mb2_hdr_begin-0xffc03>
 3f5:	0c 04                	or     $0x4,%al
 3f7:	04 88                	add    $0x88,%al
 3f9:	01 00                	add    %eax,(%eax)
 3fb:	00 2c 00             	add    %ch,(%eax,%eax,1)
 3fe:	00 00                	add    %al,(%eax)
 400:	e8 03 00 00 00       	call   408 <mb2_hdr_begin-0xffbf8>
 405:	0b 10                	or     (%eax),%edx
 407:	00 09                	add    %cl,(%ecx)
 409:	04 00                	add    $0x0,%al
 40b:	00 41 0e             	add    %al,0xe(%ecx)
 40e:	08 85 02 42 0d 05    	or     %al,0x50d4202(%ebp)
 414:	49                   	dec    %ecx
 415:	87 03                	xchg   %eax,(%ebx)
 417:	86 04 83             	xchg   %al,(%ebx,%eax,4)
 41a:	05 02 b2 0a c3       	add    $0xc30ab202,%eax
 41f:	41                   	inc    %ecx
 420:	c6 41 c7 41          	movb   $0x41,-0x39(%ecx)
 424:	c5 0c 04             	lds    (%esp,%eax,1),%ecx
 427:	04 41                	add    $0x41,%al
 429:	0b 00                	or     (%eax),%eax
 42b:	00 10                	add    %dl,(%eax)
 42d:	00 00                	add    %al,(%eax)
 42f:	00 ff                	add    %bh,%bh
 431:	ff                   	(bad)
 432:	ff                   	(bad)
 433:	ff 01                	incl   (%ecx)
 435:	00 01                	add    %al,(%ecx)
 437:	7c 08                	jl     441 <mb2_hdr_begin-0xffbbf>
 439:	0c 04                	or     $0x4,%al
 43b:	04 88                	add    $0x88,%al
 43d:	01 00                	add    %eax,(%eax)
 43f:	00 20                	add    %ah,(%eax)
 441:	00 00                	add    %al,(%eax)
 443:	00 2c 04             	add    %ch,(%esp,%eax,1)
 446:	00 00                	add    %al,(%eax)
 448:	10 0f                	adc    %cl,(%edi)
 44a:	10 00                	adc    %al,(%eax)
 44c:	1f                   	pop    %ds
 44d:	00 00                	add    %al,(%eax)
 44f:	00 41 0e             	add    %al,0xe(%ecx)
 452:	08 85 02 42 0d 05    	or     %al,0x50d4202(%ebp)
 458:	47                   	inc    %edi
 459:	83 03 54             	addl   $0x54,(%ebx)
 45c:	c5 c3 0c             	(bad)
 45f:	04 04                	add    $0x4,%al
 461:	00 00                	add    %al,(%eax)
 463:	00 10                	add    %dl,(%eax)
 465:	00 00                	add    %al,(%eax)
 467:	00 ff                	add    %bh,%bh
 469:	ff                   	(bad)
 46a:	ff                   	(bad)
 46b:	ff 01                	incl   (%ecx)
 46d:	00 01                	add    %al,(%ecx)
 46f:	7c 08                	jl     479 <mb2_hdr_begin-0xffb87>
 471:	0c 04                	or     $0x4,%al
 473:	04 88                	add    $0x88,%al
 475:	01 00                	add    %eax,(%eax)
 477:	00 1c 00             	add    %bl,(%eax,%eax,1)
 47a:	00 00                	add    %al,(%eax)
 47c:	64 04 00             	fs add $0x0,%al
 47f:	00 30                	add    %dh,(%eax)
 481:	0f 10 00             	movups (%eax),%xmm0
 484:	1b 00                	sbb    (%eax),%eax
 486:	00 00                	add    %al,(%eax)
 488:	41                   	inc    %ecx
 489:	0e                   	push   %cs
 48a:	08 85 02 44 0d 05    	or     %al,0x50d4402(%ebp)
 490:	55                   	push   %ebp
 491:	c5 0c 04             	lds    (%esp,%eax,1),%ecx
 494:	04 00                	add    $0x0,%al
	...
